
hello_world.elf:     file format elf32-littlenios2
hello_world.elf
architecture: nios2:r1, flags 0x00000112:
EXEC_P, HAS_SYMS, D_PAGED
start address 0x080001bc

Program Header:
    LOAD off    0x00001000 vaddr 0x08000000 paddr 0x08000000 align 2**12
         filesz 0x00000020 memsz 0x00000020 flags r-x
    LOAD off    0x00001020 vaddr 0x08000020 paddr 0x08000020 align 2**12
         filesz 0x00012134 memsz 0x00012134 flags r-x
    LOAD off    0x00013154 vaddr 0x08012154 paddr 0x08013d08 align 2**12
         filesz 0x00001bb4 memsz 0x00001bb4 flags rw-
    LOAD off    0x000158bc vaddr 0x080158bc paddr 0x080158bc align 2**12
         filesz 0x00000000 memsz 0x0000015c flags rw-

Sections:
Idx Name          Size      VMA       LMA       File off  Algn
  0 .entry        00000020  08000000  08000000  00001000  2**5
                  CONTENTS, ALLOC, LOAD, READONLY, CODE
  1 .exceptions   0000019c  08000020  08000020  00001020  2**2
                  CONTENTS, ALLOC, LOAD, READONLY, CODE
  2 .text         0001181c  080001bc  080001bc  000011bc  2**2
                  CONTENTS, ALLOC, LOAD, READONLY, CODE
  3 .rodata       0000077c  080119d8  080119d8  000129d8  2**2
                  CONTENTS, ALLOC, LOAD, READONLY, DATA
  4 .rwdata       00001bb4  08012154  08013d08  00013154  2**2
                  CONTENTS, ALLOC, LOAD, DATA, SMALL_DATA
  5 .bss          0000015c  080158bc  080158bc  000158bc  2**2
                  ALLOC, SMALL_DATA
  6 .onchip_memory2_0 00000000  00000000  00000000  00014d08  2**0
                  CONTENTS
  7 .SDRAM        00000000  08015a18  08015a18  00014d08  2**0
                  CONTENTS
  8 .comment      00000023  00000000  00000000  00014d08  2**0
                  CONTENTS, READONLY
  9 .debug_aranges 00000f00  00000000  00000000  00014d30  2**3
                  CONTENTS, READONLY, DEBUGGING
 10 .debug_info   0002b59c  00000000  00000000  00015c30  2**0
                  CONTENTS, READONLY, DEBUGGING
 11 .debug_abbrev 0000ac78  00000000  00000000  000411cc  2**0
                  CONTENTS, READONLY, DEBUGGING
 12 .debug_line   0000d086  00000000  00000000  0004be44  2**0
                  CONTENTS, READONLY, DEBUGGING
 13 .debug_frame  00002644  00000000  00000000  00058ecc  2**2
                  CONTENTS, READONLY, DEBUGGING
 14 .debug_str    000039a7  00000000  00000000  0005b510  2**0
                  CONTENTS, READONLY, DEBUGGING
 15 .debug_loc    00017c79  00000000  00000000  0005eeb7  2**0
                  CONTENTS, READONLY, DEBUGGING
 16 .debug_alt_sim_info 00000040  00000000  00000000  00076b30  2**2
                  CONTENTS, READONLY, DEBUGGING
 17 .debug_ranges 00001370  00000000  00000000  00076b70  2**3
                  CONTENTS, READONLY, DEBUGGING
 18 .thread_model 00000003  00000000  00000000  0007b613  2**0
                  CONTENTS, READONLY
 19 .cpu          0000000c  00000000  00000000  0007b616  2**0
                  CONTENTS, READONLY
 20 .qsys         00000001  00000000  00000000  0007b622  2**0
                  CONTENTS, READONLY
 21 .simulation_enabled 00000001  00000000  00000000  0007b623  2**0
                  CONTENTS, READONLY
 22 .stderr_dev   0000000b  00000000  00000000  0007b624  2**0
                  CONTENTS, READONLY
 23 .stdin_dev    0000000b  00000000  00000000  0007b62f  2**0
                  CONTENTS, READONLY
 24 .stdout_dev   0000000b  00000000  00000000  0007b63a  2**0
                  CONTENTS, READONLY
 25 .sopc_system_name 00000008  00000000  00000000  0007b645  2**0
                  CONTENTS, READONLY
 26 .quartus_project_dir 0000002a  00000000  00000000  0007b64d  2**0
                  CONTENTS, READONLY
 27 .jdi          00003fa0  00000000  00000000  0007b677  2**0
                  CONTENTS, READONLY
 28 .sopcinfo     000751fd  00000000  00000000  0007f617  2**0
                  CONTENTS, READONLY
SYMBOL TABLE:
08000000 l    d  .entry	00000000 .entry
08000020 l    d  .exceptions	00000000 .exceptions
080001bc l    d  .text	00000000 .text
080119d8 l    d  .rodata	00000000 .rodata
08012154 l    d  .rwdata	00000000 .rwdata
080158bc l    d  .bss	00000000 .bss
00000000 l    d  .onchip_memory2_0	00000000 .onchip_memory2_0
08015a18 l    d  .SDRAM	00000000 .SDRAM
00000000 l    d  .comment	00000000 .comment
00000000 l    d  .debug_aranges	00000000 .debug_aranges
00000000 l    d  .debug_info	00000000 .debug_info
00000000 l    d  .debug_abbrev	00000000 .debug_abbrev
00000000 l    d  .debug_line	00000000 .debug_line
00000000 l    d  .debug_frame	00000000 .debug_frame
00000000 l    d  .debug_str	00000000 .debug_str
00000000 l    d  .debug_loc	00000000 .debug_loc
00000000 l    d  .debug_alt_sim_info	00000000 .debug_alt_sim_info
00000000 l    d  .debug_ranges	00000000 .debug_ranges
00000000 l    df *ABS*	00000000 ../hello_world_bsp//obj/HAL/src/crt0.o
080001f4 l       .text	00000000 alt_after_alt_main
00000000 l    df *ABS*	00000000 alt_exception_entry.o
08000094 l       .exceptions	00000000 alt_exception_unknown
00000000 l    df *ABS*	00000000 alt_irq_handler.c
00000000 l    df *ABS*	00000000 hello_world.c
00000000 l    df *ABS*	00000000 atoi.c
00000000 l    df *ABS*	00000000 fclose.c
00000000 l    df *ABS*	00000000 fflush.c
00000000 l    df *ABS*	00000000 findfp.c
08001348 l     F .text	00000008 __fp_lock
08001350 l     F .text	00000008 __fp_unlock
08001364 l     F .text	000001a0 __sinit.part.1
00000000 l    df *ABS*	00000000 fopen.c
00000000 l    df *ABS*	00000000 mallocr.c
00000000 l    df *ABS*	00000000 fseek.c
00000000 l    df *ABS*	00000000 fstatr.c
00000000 l    df *ABS*	00000000 fwalk.c
00000000 l    df *ABS*	00000000 fwrite.c
00000000 l    df *ABS*	00000000 getc.c
00000000 l    df *ABS*	00000000 impure.c
08012154 l     O .rwdata	00000424 impure_data
00000000 l    df *ABS*	00000000 int_errno.c
00000000 l    df *ABS*	00000000 makebuf.c
00000000 l    df *ABS*	00000000 mallocr.c
00000000 l    df *ABS*	00000000 memset.c
00000000 l    df *ABS*	00000000 openr.c
00000000 l    df *ABS*	00000000 printf.c
00000000 l    df *ABS*	00000000 puts.c
00000000 l    df *ABS*	00000000 refill.c
08003094 l     F .text	0000001c lflush
00000000 l    df *ABS*	00000000 rget.c
00000000 l    df *ABS*	00000000 sbrkr.c
00000000 l    df *ABS*	00000000 stdio.c
00000000 l    df *ABS*	00000000 strlen.c
00000000 l    df *ABS*	00000000 strncmp.c
00000000 l    df *ABS*	00000000 strtol.c
00000000 l    df *ABS*	00000000 vfprintf.c
08011c12 l     O .rodata	00000010 zeroes.4181
08011c22 l     O .rodata	00000010 blanks.4180
00000000 l    df *ABS*	00000000 writer.c
00000000 l    df *ABS*	00000000 wsetup.c
00000000 l    df *ABS*	00000000 closer.c
00000000 l    df *ABS*	00000000 ctype_.c
08011d33 l     O .rodata	00000180 _ctype_b
00000000 l    df *ABS*	00000000 dtoa.c
08005b54 l     F .text	00000228 quorem
00000000 l    df *ABS*	00000000 flags.c
00000000 l    df *ABS*	00000000 fvwrite.c
00000000 l    df *ABS*	00000000 isattyr.c
00000000 l    df *ABS*	00000000 locale.c
080129a0 l     O .rwdata	00000020 lc_ctype_charset
08012980 l     O .rwdata	00000020 lc_message_charset
080129c0 l     O .rwdata	00000038 lconv
00000000 l    df *ABS*	00000000 lseekr.c
00000000 l    df *ABS*	00000000 memchr.c
00000000 l    df *ABS*	00000000 memcpy.c
00000000 l    df *ABS*	00000000 memmove.c
00000000 l    df *ABS*	00000000 mprec.c
08011ed0 l     O .rodata	0000000c p05.2678
00000000 l    df *ABS*	00000000 readr.c
00000000 l    df *ABS*	00000000 mallocr.c
00000000 l    df *ABS*	00000000 s_fpclassify.c
00000000 l    df *ABS*	00000000 strcmp.c
00000000 l    df *ABS*	00000000 vfprintf.c
08009648 l     F .text	000000fc __sprint_r.part.0
08012004 l     O .rodata	00000010 blanks.4125
08011ff4 l     O .rodata	00000010 zeroes.4126
00000000 l    df *ABS*	00000000 mallocr.c
00000000 l    df *ABS*	00000000 fputwc.c
00000000 l    df *ABS*	00000000 wbuf.c
00000000 l    df *ABS*	00000000 wcrtomb.c
00000000 l    df *ABS*	00000000 wctomb_r.c
00000000 l    df *ABS*	00000000 libgcc2.c
00000000 l    df *ABS*	00000000 libgcc2.c
00000000 l    df *ABS*	00000000 lib2-divmod.c
0800be24 l     F .text	0000006c udivmodsi4
00000000 l    df *ABS*	00000000 lib2-mul.c
00000000 l    df *ABS*	00000000 adddf3.c
00000000 l    df *ABS*	00000000 divdf3.c
00000000 l    df *ABS*	00000000 eqdf2.c
00000000 l    df *ABS*	00000000 gedf2.c
00000000 l    df *ABS*	00000000 ledf2.c
00000000 l    df *ABS*	00000000 muldf3.c
00000000 l    df *ABS*	00000000 subdf3.c
00000000 l    df *ABS*	00000000 fixdfsi.c
00000000 l    df *ABS*	00000000 floatsidf.c
00000000 l    df *ABS*	00000000 floatunsidf.c
00000000 l    df *ABS*	00000000 libgcc2.c
00000000 l    df *ABS*	00000000 libgcc2.c
00000000 l    df *ABS*	00000000 alt_close.c
0800e774 l     F .text	00000050 alt_get_errno
00000000 l    df *ABS*	00000000 alt_dev.c
0800e89c l     F .text	0000002c alt_dev_null_write
00000000 l    df *ABS*	00000000 alt_errno.c
00000000 l    df *ABS*	00000000 alt_fstat.c
0800e8c8 l     F .text	00000050 alt_get_errno
00000000 l    df *ABS*	00000000 alt_isatty.c
0800e9d0 l     F .text	00000050 alt_get_errno
00000000 l    df *ABS*	00000000 alt_load.c
0800eacc l     F .text	00000064 alt_load_section
00000000 l    df *ABS*	00000000 alt_lseek.c
0800ebb0 l     F .text	00000050 alt_get_errno
00000000 l    df *ABS*	00000000 alt_main.c
00000000 l    df *ABS*	00000000 alt_malloc_lock.c
00000000 l    df *ABS*	00000000 alt_open.c
0800ed94 l     F .text	00000050 alt_get_errno
0800ede4 l     F .text	000000f4 alt_file_locked
00000000 l    df *ABS*	00000000 alt_read.c
0800f038 l     F .text	00000050 alt_get_errno
00000000 l    df *ABS*	00000000 alt_release_fd.c
00000000 l    df *ABS*	00000000 alt_sbrk.c
08013cf8 l     O .rwdata	00000004 heap_end
00000000 l    df *ABS*	00000000 alt_usleep.c
00000000 l    df *ABS*	00000000 alt_write.c
0800f2ec l     F .text	00000050 alt_get_errno
00000000 l    df *ABS*	00000000 alt_sys_init.c
0800f43c l     F .text	00000038 alt_dev_reg
08012ba0 l     O .rwdata	00001060 jtag_uart_0
08013c00 l     O .rwdata	000000c4 uart_0
00000000 l    df *ABS*	00000000 altera_avalon_jtag_uart_fd.c
00000000 l    df *ABS*	00000000 altera_avalon_jtag_uart_init.c
0800f74c l     F .text	00000204 altera_avalon_jtag_uart_irq
0800f950 l     F .text	000000a8 altera_avalon_jtag_uart_timeout
00000000 l    df *ABS*	00000000 altera_avalon_jtag_uart_ioctl.c
00000000 l    df *ABS*	00000000 altera_avalon_jtag_uart_read.c
00000000 l    df *ABS*	00000000 altera_avalon_jtag_uart_write.c
00000000 l    df *ABS*	00000000 altera_avalon_timer_sc.c
0800ff70 l     F .text	00000074 alt_avalon_timer_sc_irq
00000000 l    df *ABS*	00000000 altera_avalon_uart_fd.c
00000000 l    df *ABS*	00000000 altera_avalon_uart_init.c
08010224 l     F .text	00000098 altera_avalon_uart_irq
080102bc l     F .text	000000e0 altera_avalon_uart_rxirq
0801039c l     F .text	00000144 altera_avalon_uart_txirq
00000000 l    df *ABS*	00000000 altera_avalon_uart_read.c
08010534 l     F .text	00000050 alt_get_errno
00000000 l    df *ABS*	00000000 altera_avalon_uart_write.c
08010760 l     F .text	00000050 alt_get_errno
00000000 l    df *ABS*	00000000 alt_alarm_start.c
00000000 l    df *ABS*	00000000 alt_busy_sleep.c
00000000 l    df *ABS*	00000000 alt_dcache_flush_all.c
00000000 l    df *ABS*	00000000 alt_dev_llist_insert.c
08010c10 l     F .text	00000050 alt_get_errno
00000000 l    df *ABS*	00000000 alt_do_ctors.c
00000000 l    df *ABS*	00000000 alt_do_dtors.c
00000000 l    df *ABS*	00000000 alt_find_dev.c
00000000 l    df *ABS*	00000000 alt_find_file.c
00000000 l    df *ABS*	00000000 alt_get_fd.c
00000000 l    df *ABS*	00000000 alt_icache_flush_all.c
00000000 l    df *ABS*	00000000 alt_iic.c
00000000 l    df *ABS*	00000000 alt_iic_isr_register.c
00000000 l    df *ABS*	00000000 alt_io_redirect.c
08011320 l     F .text	000000e0 alt_open_fd
00000000 l    df *ABS*	00000000 alt_irq_vars.c
00000000 l    df *ABS*	00000000 alt_tick.c
00000000 l    df *ABS*	00000000 altera_nios2_qsys_irq.c
00000000 l    df *ABS*	00000000 atexit.c
00000000 l    df *ABS*	00000000 exit.c
00000000 l    df *ABS*	00000000 memcmp.c
00000000 l    df *ABS*	00000000 __atexit.c
00000000 l    df *ABS*	00000000 __call_atexit.c
00000000 l    df *ABS*	00000000 alt_exit.c
08008dbc g     F .text	00000074 _mprec_log10
08008ea8 g     F .text	0000008c __any_on
080079e0 g     F .text	00000054 _isatty_r
08011edc g     O .rodata	00000028 __mprec_tinytens
0800ecdc g     F .text	00000078 alt_main
08002fc8 g     F .text	000000b8 _puts_r
08015918 g     O .bss	00000100 alt_irq
08007b14 g     F .text	0000005c _lseek_r
08013d08 g       *ABS*	00000000 __flash_rwdata_start
080074a4 g     F .text	00000098 __sflags
0800d194 g     F .text	00000084 .hidden __eqdf2
08015a18 g       *ABS*	00000000 __alt_heap_start
08002f8c g     F .text	0000003c printf
0800afc8 g     F .text	0000009c _wcrtomb_r
0800340c g     F .text	0000005c __sseek
080016ac g     F .text	00000010 __sinit
0800ae58 g     F .text	00000154 __swbuf_r
08007a34 g     F .text	0000007c _setlocale_r
08001504 g     F .text	00000078 __sfmoreglue
0800ed74 g     F .text	00000020 __malloc_unlock
08007d90 g     F .text	0000015c memmove
08001694 g     F .text	00000018 _cleanup
08007eec g     F .text	000000a8 _Balloc
0800d218 g     F .text	000000e0 .hidden __gtdf2
00000000  w      *UND*	00000000 __errno
08000000 g     F .entry	0000000c __reset
08000020 g       *ABS*	00000000 __flash_exceptions_start
08002094 g     F .text	00000058 _fstat_r
08000350 g     F .text	000006e0 get_gps
080158bc g     O .bss	00000004 errno
080032cc g     F .text	00000014 __srget
08003388 g     F .text	00000008 __seofread
080158dc g     O .bss	00000004 alt_argv
0801bcc4 g       *ABS*	00000000 _gp
0800f2bc g     F .text	00000030 usleep
08012a20 g     O .rwdata	00000180 alt_fd_list
08002378 g     F .text	00000080 _getc_r
080023f8 g     F .text	00000088 getc
08010dbc g     F .text	00000090 alt_find_dev
08007c58 g     F .text	00000138 memcpy
08001358 g     F .text	0000000c _cleanup_r
0800e59c g     F .text	000000d0 .hidden __floatsidf
08011400 g     F .text	00000078 alt_io_redirect
0800d2f8 g     F .text	000000e0 .hidden __ltdf2
080119d8 g       *ABS*	00000000 __DTOR_END__
08003080 g     F .text	00000014 puts
08009530 g     F .text	00000074 __fpclassifyd
08008d18 g     F .text	000000a4 __ratio
0800ab80 g     F .text	00000024 __vfiprintf_internal
0800fb4c g     F .text	0000020c altera_avalon_jtag_uart_read
00000000  w      *UND*	00000000 malloc
08002f60 g     F .text	0000002c _printf_r
00000000 g       *ABS*	00000000 __alt_mem_onchip_memory2_0
0800bf40 g     F .text	00000008 .hidden __udivsi3
0800ea20 g     F .text	000000ac isatty
08011f2c g     O .rodata	000000c8 __mprec_tens
08007ab0 g     F .text	0000000c __locale_charset
080158c8 g     O .bss	00000004 __malloc_top_pad
08013cd8 g     O .rwdata	00000004 __mb_cur_max
08007ae0 g     F .text	0000000c _localeconv_r
08008314 g     F .text	0000003c __i2b
0800753c g     F .text	000004a4 __sfvwrite_r
080032e0 g     F .text	00000054 _sbrk_r
08008f34 g     F .text	0000005c _read_r
08013cf0 g     O .rwdata	00000004 alt_max_fd
08000fdc g     F .text	00000100 _fclose_r
08001318 g     F .text	00000030 fflush
080158c4 g     O .bss	00000004 __malloc_max_sbrked_mem
0800bf78 g     F .text	0000089c .hidden __adddf3
08008ac0 g     F .text	0000011c __b2d
0800b808 g     F .text	0000061c .hidden __umoddi3
0800ec00 g     F .text	000000dc lseek
08013cc4 g     O .rwdata	00000004 _global_impure_ptr
08008f90 g     F .text	000005a0 _realloc_r
08015a18 g       *ABS*	00000000 __bss_end
08011230 g     F .text	000000f0 alt_iic_isr_register
08011510 g     F .text	00000104 alt_tick
0800b1c8 g     F .text	00000640 .hidden __udivdi3
0800ac7c g     F .text	00000184 _fputwc_r
08011f04 g     O .rodata	00000028 __mprec_bigtens
080080f8 g     F .text	00000104 __s2b
0800e66c g     F .text	000000a4 .hidden __floatunsidf
08008868 g     F .text	00000060 __mcmp
0801017c g     F .text	000000a8 altera_avalon_uart_init
080016cc g     F .text	00000018 __fp_lock_all
08000b80 g     F .text	00000160 start_log
080111e4 g     F .text	0000004c alt_ic_irq_enabled
08011478 g     F .text	00000098 alt_alarm_stop
08003830 g     F .text	00000024 strtol
080158e4 g     O .bss	00000004 alt_irq_active
080000ec g     F .exceptions	000000d0 alt_irq_handler
080129f8 g     O .rwdata	00000028 alt_dev_null
08010bf4 g     F .text	0000001c alt_dcache_flush_all
080081fc g     F .text	00000068 __hi0bits
0800e514 g     F .text	00000088 .hidden __fixdfsi
08013d08 g       *ABS*	00000000 __ram_rwdata_end
08013ce8 g     O .rwdata	00000008 alt_dev_list
0800f33c g     F .text	00000100 write
08012154 g       *ABS*	00000000 __ram_rodata_end
0800e918 g     F .text	000000b8 fstat
08000000 g       *ABS*	00000000 __alt_mem_SDRAM
0800d2f8 g     F .text	000000e0 .hidden __ledf2
080085e0 g     F .text	00000140 __pow5mult
0800975c g     F .text	00001424 ___vfiprintf_internal_r
080158d4 g     O .bss	00000004 __nlocale_changed
0800bf48 g     F .text	00000008 .hidden __umodsi3
08015a18 g       *ABS*	00000000 end
08000fd0 g     F .text	0000000c _atoi_r
080107b0 g     F .text	000001ac altera_avalon_uart_write
08002070 g     F .text	00000024 fseek
0800f688 g     F .text	000000c4 altera_avalon_jtag_uart_init
080119d8 g       *ABS*	00000000 __CTOR_LIST__
0c000000 g       *ABS*	00000000 __alt_stack_pointer
0800ffe4 g     F .text	00000088 alt_avalon_timer_sc_init
080100cc g     F .text	00000060 altera_avalon_uart_write_fd
0800e710 g     F .text	00000064 .hidden __clzsi2
0801012c g     F .text	00000050 altera_avalon_uart_close_fd
0800fd58 g     F .text	00000218 altera_avalon_jtag_uart_write
080016bc g     F .text	00000004 __sfp_lock_acquire
08007b70 g     F .text	000000e8 memchr
08003854 g     F .text	000020fc ___vfprintf_internal_r
0800192c g     F .text	000002f0 _free_r
08007abc g     F .text	00000010 __locale_mb_cur_max
08011810 g     F .text	00000194 __call_exitprocs
08003258 g     F .text	00000074 __srget_r
080158d0 g     O .bss	00000004 __mlocale_changed
08013ccc g     O .rwdata	00000004 __malloc_sbrk_base
080001bc g     F .text	0000003c _start
080158e8 g     O .bss	00000004 _alt_tick_rate
08008720 g     F .text	00000148 __lshift
080158ec g     O .bss	00000004 _alt_nticks
0800f088 g     F .text	00000104 read
0800f4a8 g     F .text	0000007c alt_sys_init
08002f04 g     F .text	0000005c _open_r
080116fc g     F .text	00000114 __register_exitproc
08003508 g     F .text	000000c0 strncmp
08008350 g     F .text	00000290 __multiply
0800f9f8 g     F .text	00000068 altera_avalon_jtag_uart_close
0800bf50 g     F .text	00000028 .hidden __mulsi3
08012154 g       *ABS*	00000000 __ram_rwdata_start
080119d8 g       *ABS*	00000000 __ram_rodata_start
080158f0 g     O .bss	00000028 __malloc_current_mallinfo
08008bdc g     F .text	0000013c __d2b
0800f524 g     F .text	00000060 altera_avalon_jtag_uart_read_fd
08010f60 g     F .text	000000d4 alt_get_fd
08010a9c g     F .text	00000158 alt_busy_sleep
08005b00 g     F .text	00000054 _close_r
08011680 g     F .text	0000007c memcmp
0800f5e4 g     F .text	00000050 altera_avalon_jtag_uart_close_fd
08015a18 g       *ABS*	00000000 __alt_stack_base
0800f634 g     F .text	00000054 altera_avalon_jtag_uart_ioctl_fd
0800225c g     F .text	000000dc _fwrite_r
080059d0 g     F .text	00000130 __swsetup_r
0800c814 g     F .text	00000980 .hidden __divdf3
0800157c g     F .text	00000118 __sfp
08008e30 g     F .text	00000078 __copybits
08012578 g     O .rwdata	00000408 __malloc_av_
080016c8 g     F .text	00000004 __sinit_lock_release
0800d3d8 g     F .text	0000086c .hidden __muldf3
08003334 g     F .text	00000054 __sread
08010e4c g     F .text	00000114 alt_find_file
08010c60 g     F .text	000000a4 alt_dev_llist_insert
0800ed54 g     F .text	00000020 __malloc_lock
0800f20c g     F .text	000000b0 sbrk
080010f0 g     F .text	00000228 _fflush_r
0800aba4 g     F .text	000000d8 _calloc_r
080017ec g     F .text	0000001c fopen
080158bc g       *ABS*	00000000 __bss_start
08002de0 g     F .text	00000124 memset
080001f8 g     F .text	00000158 main
080158e0 g     O .bss	00000004 alt_envp
080158c0 g     O .bss	00000004 __malloc_max_total_mem
0800f584 g     F .text	00000060 altera_avalon_jtag_uart_write_fd
0800afac g     F .text	0000001c __swbuf
08003468 g     F .text	00000008 __sclose
0c000000 g       *ABS*	00000000 __alt_heap_limit
080010dc g     F .text	00000014 fclose
080035c8 g     F .text	00000268 _strtol_r
08005d7c g     F .text	00001728 _dtoa_r
08002638 g     F .text	000007a8 _malloc_r
0800b13c g     F .text	00000030 __ascii_wctomb
08013cf4 g     O .rwdata	00000004 alt_errno
080020ec g     F .text	000000b8 _fwalk
0800be90 g     F .text	00000054 .hidden __divsi3
08001808 g     F .text	00000124 _malloc_trim_r
080119d8 g       *ABS*	00000000 __CTOR_END__
080095a4 g     F .text	000000a4 strcmp
080119d8 g       *ABS*	00000000 __flash_rodata_start
080119d8 g       *ABS*	00000000 __DTOR_LIST__
08000e30 g     F .text	00000194 dump_log
0800d194 g     F .text	00000084 .hidden __nedf2
0800f474 g     F .text	00000034 alt_irq_init
0800f18c g     F .text	00000080 alt_release_fd
08012014 g     O .rodata	00000100 .hidden __clz_tab
080158cc g     O .bss	00000004 _PathLocale
08011634 g     F .text	00000014 atexit
08005974 g     F .text	0000005c _write_r
08007aec g     F .text	0000001c setlocale
08013cc8 g     O .rwdata	00000004 _impure_ptr
080158d8 g     O .bss	00000004 alt_argc
08010d60 g     F .text	0000005c _do_dtors
08007ad8 g     F .text	00000008 __locale_cjk_lang
08001c1c g     F .text	00000454 _fseek_r
080030b0 g     F .text	000001a8 __srefill_r
08000020 g       .exceptions	00000000 alt_irq_entry
08008a60 g     F .text	00000060 __ulp
080016e4 g     F .text	00000018 __fp_unlock_all
08013ce0 g     O .rwdata	00000008 alt_fs_list
08000020 g       *ABS*	00000000 __ram_exceptions_start
08007b08 g     F .text	0000000c localeconv
08011050 g     F .text	00000050 alt_ic_isr_register
08002338 g     F .text	00000040 fwrite
08013d08 g       *ABS*	00000000 _edata
0801006c g     F .text	00000060 altera_avalon_uart_read_fd
08015a18 g       *ABS*	00000000 _end
080001bc g       *ABS*	00000000 __ram_exceptions_end
0800fa60 g     F .text	000000ec altera_avalon_jtag_uart_ioctl
08011140 g     F .text	000000a4 alt_ic_irq_disable
08003390 g     F .text	0000007c __swrite
08013cd0 g     O .rwdata	00000004 __malloc_trim_threshold
08011614 g     F .text	00000020 altera_nios2_qsys_irq_init
08007acc g     F .text	0000000c __locale_msgcharset
08011648 g     F .text	00000038 exit
080021a4 g     F .text	000000b8 _fwalk_reent
080088c8 g     F .text	00000198 __mdiff
08000ce0 g     F .text	00000150 snapshot_log
0800bee4 g     F .text	0000005c .hidden __modsi3
08013cd4 g     O .rwdata	00000004 __ctype_ptr__
0c000000 g       *ABS*	00000000 __alt_data_end
08000020 g     F .exceptions	00000000 alt_exception
080016c0 g     F .text	00000004 __sfp_lock_release
08000fc4 g     F .text	0000000c atoi
08011c32 g     O .rodata	00000101 _ctype_
080104e0 g     F .text	00000054 altera_avalon_uart_close
080016fc g     F .text	000000f0 _fopen_r
080119a4 g     F .text	00000034 _exit
0801095c g     F .text	00000140 alt_alarm_start
08002480 g     F .text	000001b8 __smakebuf_r
08000a30 g     F .text	00000150 erase_log
08003470 g     F .text	00000098 strlen
0800eed8 g     F .text	00000160 open
0800d218 g     F .text	000000e0 .hidden __gedf2
08013cdc g     O .rwdata	00000004 __wctomb
08009744 g     F .text	00000018 __sprint_r
08011034 g     F .text	0000001c alt_icache_flush_all
08013cfc g     O .rwdata	00000004 alt_priority_mask
080110a0 g     F .text	000000a0 alt_ic_irq_enable
08005950 g     F .text	00000024 __vfprintf_internal
08010584 g     F .text	000001dc altera_avalon_uart_read
0800b16c g     F .text	0000005c _wctomb_r
0800dc44 g     F .text	000008d0 .hidden __subdf3
08008264 g     F .text	000000b0 __lo0bits
08013d00 g     O .rwdata	00000008 alt_alarm_list
08010d04 g     F .text	0000005c _do_ctors
0800b064 g     F .text	000000d8 wcrtomb
0800e7c4 g     F .text	000000d8 close
0800eb30 g     F .text	00000080 alt_load
0800ae00 g     F .text	00000058 fputwc
00000000  w      *UND*	00000000 free
080016c4 g     F .text	00000004 __sinit_lock_acquire
08007fbc g     F .text	0000013c __multadd
08007f94 g     F .text	00000028 _Bfree



Disassembly of section .entry:

08000000 <__reset>:
 * Jump to the _start entry point in the .text section if reset code
 * is allowed or if optimizing for RTL simulation.
 */
#if defined(ALT_ALLOW_CODE_AT_RESET) || defined(ALT_SIM_OPTIMIZE)
    /* Jump to the _start entry point in the .text section. */
    movhi r1, %hi(_start)
 8000000:	00420034 	movhi	at,2048
    ori r1, r1, %lo(_start)
 8000004:	08406f14 	ori	at,at,444
    jmp r1
 8000008:	0800683a 	jmp	at
	...

Disassembly of section .exceptions:

08000020 <alt_exception>:

#else /* ALT_EXCEPTION_STACK disabled */
        /* 
         * Reserve space on normal stack for registers about to be pushed.
         */
        addi  sp, sp, -76
 8000020:	deffed04 	addi	sp,sp,-76
         * documentation for details).
         *
         * Leave a gap in the stack frame at 4(sp) for the muldiv handler to
         * store zero into.
         */
        stw   ra,  0(sp)
 8000024:	dfc00015 	stw	ra,0(sp)
        stw   r1,   8(sp)
 8000028:	d8400215 	stw	at,8(sp)
        stw   r2,  12(sp)
 800002c:	d8800315 	stw	r2,12(sp)
        stw   r3,  16(sp)
 8000030:	d8c00415 	stw	r3,16(sp)
        stw   r4,  20(sp)
 8000034:	d9000515 	stw	r4,20(sp)
        stw   r5,  24(sp)
 8000038:	d9400615 	stw	r5,24(sp)
        stw   r6,  28(sp)
 800003c:	d9800715 	stw	r6,28(sp)
        stw   r7,  32(sp)
 8000040:	d9c00815 	stw	r7,32(sp)
        rdctl r5, estatus   /* Read early to avoid usage stall */
 8000044:	000b307a 	rdctl	r5,estatus
        stw   r8,  36(sp)
 8000048:	da000915 	stw	r8,36(sp)
        stw   r9,  40(sp)
 800004c:	da400a15 	stw	r9,40(sp)
        stw   r10, 44(sp)
 8000050:	da800b15 	stw	r10,44(sp)
        stw   r11, 48(sp)
 8000054:	dac00c15 	stw	r11,48(sp)
        stw   r12, 52(sp)
 8000058:	db000d15 	stw	r12,52(sp)
        stw   r13, 56(sp)
 800005c:	db400e15 	stw	r13,56(sp)
        stw   r14, 60(sp)
 8000060:	db800f15 	stw	r14,60(sp)
        stw   r15, 64(sp)
 8000064:	dbc01015 	stw	r15,64(sp)
        /*
         * ea-4 contains the address of the instruction being executed
         * when the exception occured. For interrupt exceptions, we will
         * will be re-issue the isntruction. Store it in 72(sp)
         */
        stw   r5,  68(sp)  /* estatus */
 8000068:	d9401115 	stw	r5,68(sp)
        addi  r15, ea, -4  /* instruction that caused exception */
 800006c:	ebffff04 	addi	r15,ea,-4
        stw   r15,  72(sp)
 8000070:	dbc01215 	stw	r15,72(sp)
#else
        /*
         * Test to see if the exception was a software exception or caused 
         * by an external interrupt, and vector accordingly.
         */
        rdctl r4, ipending
 8000074:	0009313a 	rdctl	r4,ipending
        andi  r2, r5, 1
 8000078:	2880004c 	andi	r2,r5,1
        beq   r2, zero, .Lnot_irq
 800007c:	10000326 	beq	r2,zero,800008c <alt_exception+0x6c>
        beq   r4, zero, .Lnot_irq
 8000080:	20000226 	beq	r4,zero,800008c <alt_exception+0x6c>
        /*
         * Now that all necessary registers have been preserved, call 
         * alt_irq_handler() to process the interrupts.
         */

        call alt_irq_handler
 8000084:	80000ec0 	call	80000ec <alt_irq_handler>

        .section .exceptions.irqreturn, "xa"

        br    .Lexception_exit
 8000088:	00000306 	br	8000098 <alt_exception_unknown+0x4>
         * upon completion, so we write ea (address of instruction *after*
         * the one where the exception occured) into 72(sp). The actual
         * instruction that caused the exception is written in r2, which these
         * handlers will utilize.
         */
        stw   ea,  72(sp)  /* Don't re-issue */
 800008c:	df401215 	stw	ea,72(sp)
        ldw   r2, -4(ea)   /* Instruction that caused exception */
 8000090:	e8bfff17 	ldw	r2,-4(ea)

08000094 <alt_exception_unknown>:
#ifdef NIOS2_HAS_DEBUG_STUB
       /*
        *  Either tell the user now (if there is a debugger attached) or go into
        *  the debug monitor which will loop until a debugger is attached.
        */
        break
 8000094:	003da03a 	break	0
        /* 
         * Restore the saved registers, so that all general purpose registers 
         * have been restored to their state at the time the interrupt occured.
         */

        ldw   r5,  68(sp)
 8000098:	d9401117 	ldw	r5,68(sp)
        ldw   ea,  72(sp)  /* This becomes the PC once eret is executed */
 800009c:	df401217 	ldw	ea,72(sp)
        ldw   ra,   0(sp)
 80000a0:	dfc00017 	ldw	ra,0(sp)

        wrctl estatus, r5
 80000a4:	2801707a 	wrctl	estatus,r5

        ldw   r1,   8(sp)
 80000a8:	d8400217 	ldw	at,8(sp)
        ldw   r2,  12(sp)
 80000ac:	d8800317 	ldw	r2,12(sp)
        ldw   r3,  16(sp)
 80000b0:	d8c00417 	ldw	r3,16(sp)
        ldw   r4,  20(sp)
 80000b4:	d9000517 	ldw	r4,20(sp)
        ldw   r5,  24(sp)
 80000b8:	d9400617 	ldw	r5,24(sp)
        ldw   r6,  28(sp)
 80000bc:	d9800717 	ldw	r6,28(sp)
        ldw   r7,  32(sp)
 80000c0:	d9c00817 	ldw	r7,32(sp)

#if defined(ALT_EXCEPTION_STACK) && defined(ALT_STACK_CHECK)
        ldw   et, %gprel(alt_exception_old_stack_limit)(gp)
#endif

        ldw   r8,  36(sp)
 80000c4:	da000917 	ldw	r8,36(sp)
        ldw   r9,  40(sp)
 80000c8:	da400a17 	ldw	r9,40(sp)
        ldw   r10, 44(sp)
 80000cc:	da800b17 	ldw	r10,44(sp)
        ldw   r11, 48(sp)
 80000d0:	dac00c17 	ldw	r11,48(sp)
        ldw   r12, 52(sp)
 80000d4:	db000d17 	ldw	r12,52(sp)
        ldw   r13, 56(sp)
 80000d8:	db400e17 	ldw	r13,56(sp)
        ldw   r14, 60(sp)
 80000dc:	db800f17 	ldw	r14,60(sp)
        ldw   r15, 64(sp)
 80000e0:	dbc01017 	ldw	r15,64(sp)
        stw   et, %gprel(alt_stack_limit_value)(gp)
        stw   zero, %gprel(alt_exception_old_stack_limit)(gp)
#endif /* ALT_STACK_CHECK */
        ldw   sp,  76(sp)
#else /* ALT_EXCEPTION_STACK disabled */
        addi  sp, sp, 76
 80000e4:	dec01304 	addi	sp,sp,76

        /*
         * Return to the interrupted instruction.
         */

        eret
 80000e8:	ef80083a 	eret

080000ec <alt_irq_handler>:
 * instruction is present if the macro ALT_CI_INTERRUPT_VECTOR defined.
 */

void alt_irq_handler (void) __attribute__ ((section (".exceptions")));
void alt_irq_handler (void)
{
 80000ec:	defff904 	addi	sp,sp,-28
 80000f0:	dfc00615 	stw	ra,24(sp)
 80000f4:	df000515 	stw	fp,20(sp)
 80000f8:	df000504 	addi	fp,sp,20
  
  /*
   * Notify the operating system that we are at interrupt level.
   */ 
  
  ALT_OS_INT_ENTER();
 80000fc:	0001883a 	nop
#ifndef NIOS2_EIC_PRESENT
static ALT_INLINE alt_u32 ALT_ALWAYS_INLINE alt_irq_pending (void)
{
  alt_u32 active;

  NIOS2_READ_IPENDING (active);
 8000100:	0005313a 	rdctl	r2,ipending
 8000104:	e0bffe15 	stw	r2,-8(fp)

  return active;
 8000108:	e0bffe17 	ldw	r2,-8(fp)
   * Consider the case where the high priority interupt is asserted during
   * the interrupt entry sequence for a lower priority interrupt to see why
   * this is the case.
   */

  active = alt_irq_pending ();
 800010c:	e0bffb15 	stw	r2,-20(fp)

  do
  {
    i = 0;
 8000110:	e03ffd15 	stw	zero,-12(fp)
    mask = 1;
 8000114:	00800044 	movi	r2,1
 8000118:	e0bffc15 	stw	r2,-16(fp)
     * called to clear the interrupt condition.
     */

    do
    {
      if (active & mask)
 800011c:	e0fffb17 	ldw	r3,-20(fp)
 8000120:	e0bffc17 	ldw	r2,-16(fp)
 8000124:	1884703a 	and	r2,r3,r2
 8000128:	10001426 	beq	r2,zero,800017c <alt_irq_handler+0x90>
      { 
#ifdef ALT_ENHANCED_INTERRUPT_API_PRESENT
        alt_irq[i].handler(alt_irq[i].context); 
 800012c:	00820074 	movhi	r2,2049
 8000130:	10964604 	addi	r2,r2,22808
 8000134:	e0fffd17 	ldw	r3,-12(fp)
 8000138:	180690fa 	slli	r3,r3,3
 800013c:	10c5883a 	add	r2,r2,r3
 8000140:	10c00017 	ldw	r3,0(r2)
 8000144:	00820074 	movhi	r2,2049
 8000148:	10964604 	addi	r2,r2,22808
 800014c:	e13ffd17 	ldw	r4,-12(fp)
 8000150:	200890fa 	slli	r4,r4,3
 8000154:	1105883a 	add	r2,r2,r4
 8000158:	10800104 	addi	r2,r2,4
 800015c:	10800017 	ldw	r2,0(r2)
 8000160:	1009883a 	mov	r4,r2
 8000164:	183ee83a 	callr	r3
#else
        alt_irq[i].handler(alt_irq[i].context, i); 
#endif
        break;
 8000168:	0001883a 	nop
#ifndef NIOS2_EIC_PRESENT
static ALT_INLINE alt_u32 ALT_ALWAYS_INLINE alt_irq_pending (void)
{
  alt_u32 active;

  NIOS2_READ_IPENDING (active);
 800016c:	0005313a 	rdctl	r2,ipending
 8000170:	e0bfff15 	stw	r2,-4(fp)

  return active;
 8000174:	e0bfff17 	ldw	r2,-4(fp)
 8000178:	00000706 	br	8000198 <alt_irq_handler+0xac>
      }
      mask <<= 1;
 800017c:	e0bffc17 	ldw	r2,-16(fp)
 8000180:	1085883a 	add	r2,r2,r2
 8000184:	e0bffc15 	stw	r2,-16(fp)
      i++;
 8000188:	e0bffd17 	ldw	r2,-12(fp)
 800018c:	10800044 	addi	r2,r2,1
 8000190:	e0bffd15 	stw	r2,-12(fp)

    } while (1);
 8000194:	003fe106 	br	800011c <__alt_data_end+0xfc00011c>

    active = alt_irq_pending ();
 8000198:	e0bffb15 	stw	r2,-20(fp)
    
  } while (active);
 800019c:	e0bffb17 	ldw	r2,-20(fp)
 80001a0:	103fdb1e 	bne	r2,zero,8000110 <__alt_data_end+0xfc000110>

  /*
   * Notify the operating system that interrupt processing is complete.
   */ 

  ALT_OS_INT_EXIT();
 80001a4:	0001883a 	nop
}
 80001a8:	e037883a 	mov	sp,fp
 80001ac:	dfc00117 	ldw	ra,4(sp)
 80001b0:	df000017 	ldw	fp,0(sp)
 80001b4:	dec00204 	addi	sp,sp,8
 80001b8:	f800283a 	ret

Disassembly of section .text:

080001bc <_start>:

    /*
     * Now that the caches are initialized, set up the stack pointer and global pointer.
     * The values provided by the linker are assumed to be correctly aligned.
     */
    movhi sp, %hi(__alt_stack_pointer)
 80001bc:	06c30034 	movhi	sp,3072
    ori sp, sp, %lo(__alt_stack_pointer)
 80001c0:	dec00014 	ori	sp,sp,0
    movhi gp, %hi(_gp)
 80001c4:	06820074 	movhi	gp,2049
    ori gp, gp, %lo(_gp)
 80001c8:	d6af3114 	ori	gp,gp,48324
 */
#ifndef ALT_SIM_OPTIMIZE
    /* Log that the BSS is about to be cleared. */
    ALT_LOG_PUTS(alt_log_msg_bss)

    movhi r2, %hi(__bss_start)
 80001cc:	00820074 	movhi	r2,2049
    ori r2, r2, %lo(__bss_start)
 80001d0:	10962f14 	ori	r2,r2,22716

    movhi r3, %hi(__bss_end)
 80001d4:	00c20074 	movhi	r3,2049
    ori r3, r3, %lo(__bss_end)
 80001d8:	18d68614 	ori	r3,r3,23064

    beq r2, r3, 1f
 80001dc:	10c00326 	beq	r2,r3,80001ec <_start+0x30>

0:
    stw zero, (r2)
 80001e0:	10000015 	stw	zero,0(r2)
    addi r2, r2, 4
 80001e4:	10800104 	addi	r2,r2,4
    bltu r2, r3, 0b
 80001e8:	10fffd36 	bltu	r2,r3,80001e0 <__alt_data_end+0xfc0001e0>
     * section aren't defined until alt_load() has been called).
     */
    mov   et, zero
#endif

    call alt_load
 80001ec:	800eb300 	call	800eb30 <alt_load>

    /* Log that alt_main is about to be called. */
    ALT_LOG_PUTS(alt_log_msg_alt_main)

    /* Call the C entry point. It should never return. */
    call alt_main
 80001f0:	800ecdc0 	call	800ecdc <alt_main>

080001f4 <alt_after_alt_main>:

    /* Wait in infinite loop in case alt_main does return. */
alt_after_alt_main:
    br alt_after_alt_main
 80001f4:	003fff06 	br	80001f4 <__alt_data_end+0xfc0001f4>

080001f8 <main>:
#define HEX3 (volatile char *) 0x00011090
#define HEX4 (volatile char *) 0x00011080
#define HEX5 (volatile char *) 0x00011070


int main() {
 80001f8:	defffc04 	addi	sp,sp,-16
 80001fc:	dfc00315 	stw	ra,12(sp)
 8000200:	df000215 	stw	fp,8(sp)
 8000204:	df000204 	addi	fp,sp,8
	printf("Hello!\n");
 8000208:	01020074 	movhi	r4,2049
 800020c:	21067604 	addi	r4,r4,6616
 8000210:	80030800 	call	8003080 <puts>
//	if(erase_log())
//		printf("cleared logs\n");
	while(1) {
		int check = *SWITCHES;
 8000214:	00800074 	movhi	r2,1
 8000218:	10841404 	addi	r2,r2,4176
 800021c:	10800003 	ldbu	r2,0(r2)
 8000220:	10803fcc 	andi	r2,r2,255
 8000224:	1080201c 	xori	r2,r2,128
 8000228:	10bfe004 	addi	r2,r2,-128
 800022c:	e0bffe15 	stw	r2,-8(fp)
		if(check % 2 == 0) {
 8000230:	e0bffe17 	ldw	r2,-8(fp)
 8000234:	1080004c 	andi	r2,r2,1
 8000238:	10001a1e 	bne	r2,zero,80002a4 <main+0xac>
			if(*PUSHBUTTON) {
 800023c:	00800074 	movhi	r2,1
 8000240:	10843004 	addi	r2,r2,4288
 8000244:	10800003 	ldbu	r2,0(r2)
 8000248:	10803fcc 	andi	r2,r2,255
 800024c:	1080201c 	xori	r2,r2,128
 8000250:	10bfe004 	addi	r2,r2,-128
 8000254:	10001226 	beq	r2,zero,80002a0 <main+0xa8>
				printf("\n\nRefreshing values\n\n");
 8000258:	01020074 	movhi	r4,2049
 800025c:	21067804 	addi	r4,r4,6624
 8000260:	80030800 	call	8003080 <puts>
				int fix = get_gps();
 8000264:	80003500 	call	8000350 <get_gps>
 8000268:	e0bfff15 	stw	r2,-4(fp)
				if(fix)
 800026c:	e0bfff17 	ldw	r2,-4(fp)
 8000270:	10000426 	beq	r2,zero,8000284 <main+0x8c>
					printf("We have signal!\n");
 8000274:	01020074 	movhi	r4,2049
 8000278:	21067e04 	addi	r4,r4,6648
 800027c:	80030800 	call	8003080 <puts>
 8000280:	00000306 	br	8000290 <main+0x98>
				else
					printf("We don't have signal.\n");
 8000284:	01020074 	movhi	r4,2049
 8000288:	21068204 	addi	r4,r4,6664
 800028c:	80030800 	call	8003080 <puts>
				usleep(1000000);
 8000290:	010003f4 	movhi	r4,15
 8000294:	21109004 	addi	r4,r4,16960
 8000298:	800f2bc0 	call	800f2bc <usleep>
 800029c:	00002606 	br	8000338 <main+0x140>
			} else
				continue;
 80002a0:	00002506 	br	8000338 <main+0x140>
		} else {
			if(start_log()){
 80002a4:	8000b800 	call	8000b80 <start_log>
 80002a8:	10002026 	beq	r2,zero,800032c <main+0x134>
				printf("\n\nLogging started.\n");
 80002ac:	01020074 	movhi	r4,2049
 80002b0:	21068804 	addi	r4,r4,6688
 80002b4:	80030800 	call	8003080 <puts>
				while(1) {
					if(*PUSHBUTTON) {
 80002b8:	00800074 	movhi	r2,1
 80002bc:	10843004 	addi	r2,r2,4288
 80002c0:	10800003 	ldbu	r2,0(r2)
 80002c4:	10803fcc 	andi	r2,r2,255
 80002c8:	1080201c 	xori	r2,r2,128
 80002cc:	10bfe004 	addi	r2,r2,-128
 80002d0:	10001526 	beq	r2,zero,8000328 <main+0x130>
						printf("Snapshot taken. '%d'\n", snapshot_log());
 80002d4:	8000ce00 	call	8000ce0 <snapshot_log>
 80002d8:	01020074 	movhi	r4,2049
 80002dc:	21068d04 	addi	r4,r4,6708
 80002e0:	100b883a 	mov	r5,r2
 80002e4:	8002f8c0 	call	8002f8c <printf>
						usleep(1000000);
 80002e8:	010003f4 	movhi	r4,15
 80002ec:	21109004 	addi	r4,r4,16960
 80002f0:	800f2bc0 	call	800f2bc <usleep>
						check = *SWITCHES;
 80002f4:	00800074 	movhi	r2,1
 80002f8:	10841404 	addi	r2,r2,4176
 80002fc:	10800003 	ldbu	r2,0(r2)
 8000300:	10803fcc 	andi	r2,r2,255
 8000304:	1080201c 	xori	r2,r2,128
 8000308:	10bfe004 	addi	r2,r2,-128
 800030c:	e0bffe15 	stw	r2,-8(fp)
						if(check % 4 == 0){
 8000310:	e0bffe17 	ldw	r2,-8(fp)
 8000314:	108000cc 	andi	r2,r2,3
 8000318:	1000031e 	bne	r2,zero,8000328 <main+0x130>
							dump_log();
 800031c:	8000e300 	call	8000e30 <dump_log>
							return 0;
 8000320:	0005883a 	mov	r2,zero
 8000324:	00000506 	br	800033c <main+0x144>
						}

					}
				}
 8000328:	003fe306 	br	80002b8 <__alt_data_end+0xfc0002b8>
			} else
				printf("Logging failed\n");
 800032c:	01020074 	movhi	r4,2049
 8000330:	21069304 	addi	r4,r4,6732
 8000334:	80030800 	call	8003080 <puts>
		}
	}
 8000338:	003fb606 	br	8000214 <__alt_data_end+0xfc000214>
	return 0;
}
 800033c:	e037883a 	mov	sp,fp
 8000340:	dfc00117 	ldw	ra,4(sp)
 8000344:	df000017 	ldw	fp,0(sp)
 8000348:	dec00204 	addi	sp,sp,8
 800034c:	f800283a 	ret

08000350 <get_gps>:


int get_gps() {
 8000350:	deffc904 	addi	sp,sp,-220
 8000354:	dfc03615 	stw	ra,216(sp)
 8000358:	df003515 	stw	fp,212(sp)
 800035c:	dc003415 	stw	r16,208(sp)
 8000360:	df003504 	addi	fp,sp,212
	const char * ID = "$GPGGA";
 8000364:	00820074 	movhi	r2,2049
 8000368:	10869704 	addi	r2,r2,6748
 800036c:	e0bfce15 	stw	r2,-200(fp)
	FILE* fp;
	char incoming;
	int have_link = 0;
 8000370:	e03fcc15 	stw	zero,-208(fp)
	volatile char ew_ind[2];
	volatile char latitude[10];
	volatile char longitude[11];
	volatile char gps_fix[2];
	volatile char no_sat[3];
	volatile int i = 0;
 8000374:	e03ffd15 	stw	zero,-12(fp)
	volatile int j = 0;
 8000378:	e03ffe15 	stw	zero,-8(fp)
	int check_type = 1;
 800037c:	00800044 	movi	r2,1
 8000380:	e0bfcd15 	stw	r2,-204(fp)
	int hash;
	fp = fopen("/dev/uart_0", "r+");
 8000384:	01020074 	movhi	r4,2049
 8000388:	21069904 	addi	r4,r4,6756
 800038c:	01420074 	movhi	r5,2049
 8000390:	29469c04 	addi	r5,r5,6768
 8000394:	80017ec0 	call	80017ec <fopen>
 8000398:	e0bfcf15 	stw	r2,-196(fp)
	if(fp == NULL)
 800039c:	e0bfcf17 	ldw	r2,-196(fp)
 80003a0:	1000041e 	bne	r2,zero,80003b4 <get_gps+0x64>
		printf("RS232 error. \n");
 80003a4:	01020074 	movhi	r4,2049
 80003a8:	21069d04 	addi	r4,r4,6772
 80003ac:	80030800 	call	8003080 <puts>
 80003b0:	00019606 	br	8000a0c <get_gps+0x6bc>
	else {
		while(check_type){
 80003b4:	00002106 	br	800043c <get_gps+0xec>
			while(incoming != '$') {
 80003b8:	00000306 	br	80003c8 <get_gps+0x78>
				incoming = getc(fp);
 80003bc:	e13fcf17 	ldw	r4,-196(fp)
 80003c0:	80023f80 	call	80023f8 <getc>
 80003c4:	e0bfcb05 	stb	r2,-212(fp)
	fp = fopen("/dev/uart_0", "r+");
	if(fp == NULL)
		printf("RS232 error. \n");
	else {
		while(check_type){
			while(incoming != '$') {
 80003c8:	e0bfcb07 	ldb	r2,-212(fp)
 80003cc:	10800918 	cmpnei	r2,r2,36
 80003d0:	103ffa1e 	bne	r2,zero,80003bc <__alt_data_end+0xfc0003bc>
				incoming = getc(fp);
			}
			i=0;
 80003d4:	e03ffd15 	stw	zero,-12(fp)
			while(incoming != '\r') {
 80003d8:	00000c06 	br	800040c <get_gps+0xbc>
				*(message+i) = incoming;
 80003dc:	e0bffd17 	ldw	r2,-12(fp)
 80003e0:	1007883a 	mov	r3,r2
 80003e4:	e0bfd104 	addi	r2,fp,-188
 80003e8:	10c5883a 	add	r2,r2,r3
 80003ec:	e0ffcb03 	ldbu	r3,-212(fp)
 80003f0:	10c00005 	stb	r3,0(r2)
				incoming = getc(fp);
 80003f4:	e13fcf17 	ldw	r4,-196(fp)
 80003f8:	80023f80 	call	80023f8 <getc>
 80003fc:	e0bfcb05 	stb	r2,-212(fp)
				i++;
 8000400:	e0bffd17 	ldw	r2,-12(fp)
 8000404:	10800044 	addi	r2,r2,1
 8000408:	e0bffd15 	stw	r2,-12(fp)
		while(check_type){
			while(incoming != '$') {
				incoming = getc(fp);
			}
			i=0;
			while(incoming != '\r') {
 800040c:	e0bfcb07 	ldb	r2,-212(fp)
 8000410:	10800358 	cmpnei	r2,r2,13
 8000414:	103ff11e 	bne	r2,zero,80003dc <__alt_data_end+0xfc0003dc>
				*(message+i) = incoming;
				incoming = getc(fp);
				i++;
			}
			hash = strncmp(message, ID, 6);
 8000418:	e0bfd104 	addi	r2,fp,-188
 800041c:	1009883a 	mov	r4,r2
 8000420:	e17fce17 	ldw	r5,-200(fp)
 8000424:	01800184 	movi	r6,6
 8000428:	80035080 	call	8003508 <strncmp>
 800042c:	e0bfd015 	stw	r2,-192(fp)
//			printf("check = '%d'\n", hash);
/*			for(i=0; i<72; i++) {
				printf("%c", *(message+i));
			}
			printf("\n"); */
			if(hash == 0) {
 8000430:	e0bfd017 	ldw	r2,-192(fp)
 8000434:	1000011e 	bne	r2,zero,800043c <get_gps+0xec>
				check_type = 0;
 8000438:	e03fcd15 	stw	zero,-204(fp)
	int hash;
	fp = fopen("/dev/uart_0", "r+");
	if(fp == NULL)
		printf("RS232 error. \n");
	else {
		while(check_type){
 800043c:	e0bfcd17 	ldw	r2,-204(fp)
 8000440:	103fdd1e 	bne	r2,zero,80003b8 <__alt_data_end+0xfc0003b8>
			printf("\n"); */
			if(hash == 0) {
				check_type = 0;
			}
		}
		i=0;
 8000444:	e03ffd15 	stw	zero,-12(fp)
		j=0;
 8000448:	e03ffe15 	stw	zero,-8(fp)
		while(message[j] != ',') {
 800044c:	00001006 	br	8000490 <get_gps+0x140>
			*(message_id+i) = *(message+j);
 8000450:	e0bffd17 	ldw	r2,-12(fp)
 8000454:	1007883a 	mov	r3,r2
 8000458:	e0bff104 	addi	r2,fp,-60
 800045c:	10c5883a 	add	r2,r2,r3
 8000460:	e0fffe17 	ldw	r3,-8(fp)
 8000464:	1809883a 	mov	r4,r3
 8000468:	e0ffd104 	addi	r3,fp,-188
 800046c:	1907883a 	add	r3,r3,r4
 8000470:	18c00003 	ldbu	r3,0(r3)
 8000474:	10c00005 	stb	r3,0(r2)
			i++;
 8000478:	e0bffd17 	ldw	r2,-12(fp)
 800047c:	10800044 	addi	r2,r2,1
 8000480:	e0bffd15 	stw	r2,-12(fp)
			j++;
 8000484:	e0bffe17 	ldw	r2,-8(fp)
 8000488:	10800044 	addi	r2,r2,1
 800048c:	e0bffe15 	stw	r2,-8(fp)
				check_type = 0;
			}
		}
		i=0;
		j=0;
		while(message[j] != ',') {
 8000490:	e0bffe17 	ldw	r2,-8(fp)
 8000494:	e0ffd104 	addi	r3,fp,-188
 8000498:	1885883a 	add	r2,r3,r2
 800049c:	10800003 	ldbu	r2,0(r2)
 80004a0:	10803fcc 	andi	r2,r2,255
 80004a4:	1080201c 	xori	r2,r2,128
 80004a8:	10bfe004 	addi	r2,r2,-128
 80004ac:	10800b18 	cmpnei	r2,r2,44
 80004b0:	103fe71e 	bne	r2,zero,8000450 <__alt_data_end+0xfc000450>
			*(message_id+i) = *(message+j);
			i++;
			j++;
		}
		*(message_id+i) = '\0';
 80004b4:	e0bffd17 	ldw	r2,-12(fp)
 80004b8:	1007883a 	mov	r3,r2
 80004bc:	e0bff104 	addi	r2,fp,-60
 80004c0:	10c5883a 	add	r2,r2,r3
 80004c4:	10000005 	stb	zero,0(r2)
		i=0;
 80004c8:	e03ffd15 	stw	zero,-12(fp)
		j++;
 80004cc:	e0bffe17 	ldw	r2,-8(fp)
 80004d0:	10800044 	addi	r2,r2,1
 80004d4:	e0bffe15 	stw	r2,-8(fp)
		while(message[j] != ',') {
 80004d8:	00001006 	br	800051c <get_gps+0x1cc>
			*(utc_time+i) = *(message+j);
 80004dc:	e0bffd17 	ldw	r2,-12(fp)
 80004e0:	1007883a 	mov	r3,r2
 80004e4:	e0bff2c4 	addi	r2,fp,-53
 80004e8:	10c5883a 	add	r2,r2,r3
 80004ec:	e0fffe17 	ldw	r3,-8(fp)
 80004f0:	1809883a 	mov	r4,r3
 80004f4:	e0ffd104 	addi	r3,fp,-188
 80004f8:	1907883a 	add	r3,r3,r4
 80004fc:	18c00003 	ldbu	r3,0(r3)
 8000500:	10c00005 	stb	r3,0(r2)
			i++;
 8000504:	e0bffd17 	ldw	r2,-12(fp)
 8000508:	10800044 	addi	r2,r2,1
 800050c:	e0bffd15 	stw	r2,-12(fp)
			j++;
 8000510:	e0bffe17 	ldw	r2,-8(fp)
 8000514:	10800044 	addi	r2,r2,1
 8000518:	e0bffe15 	stw	r2,-8(fp)
			j++;
		}
		*(message_id+i) = '\0';
		i=0;
		j++;
		while(message[j] != ',') {
 800051c:	e0bffe17 	ldw	r2,-8(fp)
 8000520:	e0ffd104 	addi	r3,fp,-188
 8000524:	1885883a 	add	r2,r3,r2
 8000528:	10800003 	ldbu	r2,0(r2)
 800052c:	10803fcc 	andi	r2,r2,255
 8000530:	1080201c 	xori	r2,r2,128
 8000534:	10bfe004 	addi	r2,r2,-128
 8000538:	10800b18 	cmpnei	r2,r2,44
 800053c:	103fe71e 	bne	r2,zero,80004dc <__alt_data_end+0xfc0004dc>
			*(utc_time+i) = *(message+j);
			i++;
			j++;
		}
		*(utc_time+i) = '\0';
 8000540:	e0bffd17 	ldw	r2,-12(fp)
 8000544:	1007883a 	mov	r3,r2
 8000548:	e0bff2c4 	addi	r2,fp,-53
 800054c:	10c5883a 	add	r2,r2,r3
 8000550:	10000005 	stb	zero,0(r2)
		i=0;
 8000554:	e03ffd15 	stw	zero,-12(fp)
		j++;
 8000558:	e0bffe17 	ldw	r2,-8(fp)
 800055c:	10800044 	addi	r2,r2,1
 8000560:	e0bffe15 	stw	r2,-8(fp)
		while(message[j] != ',') {
 8000564:	00001006 	br	80005a8 <get_gps+0x258>
			*(latitude+i) = *(message+j);
 8000568:	e0bffd17 	ldw	r2,-12(fp)
 800056c:	1007883a 	mov	r3,r2
 8000570:	e0bff684 	addi	r2,fp,-38
 8000574:	10c5883a 	add	r2,r2,r3
 8000578:	e0fffe17 	ldw	r3,-8(fp)
 800057c:	1809883a 	mov	r4,r3
 8000580:	e0ffd104 	addi	r3,fp,-188
 8000584:	1907883a 	add	r3,r3,r4
 8000588:	18c00003 	ldbu	r3,0(r3)
 800058c:	10c00005 	stb	r3,0(r2)
			i++;
 8000590:	e0bffd17 	ldw	r2,-12(fp)
 8000594:	10800044 	addi	r2,r2,1
 8000598:	e0bffd15 	stw	r2,-12(fp)
			j++;
 800059c:	e0bffe17 	ldw	r2,-8(fp)
 80005a0:	10800044 	addi	r2,r2,1
 80005a4:	e0bffe15 	stw	r2,-8(fp)
			j++;
		}
		*(utc_time+i) = '\0';
		i=0;
		j++;
		while(message[j] != ',') {
 80005a8:	e0bffe17 	ldw	r2,-8(fp)
 80005ac:	e0ffd104 	addi	r3,fp,-188
 80005b0:	1885883a 	add	r2,r3,r2
 80005b4:	10800003 	ldbu	r2,0(r2)
 80005b8:	10803fcc 	andi	r2,r2,255
 80005bc:	1080201c 	xori	r2,r2,128
 80005c0:	10bfe004 	addi	r2,r2,-128
 80005c4:	10800b18 	cmpnei	r2,r2,44
 80005c8:	103fe71e 	bne	r2,zero,8000568 <__alt_data_end+0xfc000568>
			*(latitude+i) = *(message+j);
			i++;
			j++;
		}
		*(latitude+i) = '\0';
 80005cc:	e0bffd17 	ldw	r2,-12(fp)
 80005d0:	1007883a 	mov	r3,r2
 80005d4:	e0bff684 	addi	r2,fp,-38
 80005d8:	10c5883a 	add	r2,r2,r3
 80005dc:	10000005 	stb	zero,0(r2)
		i=0;
 80005e0:	e03ffd15 	stw	zero,-12(fp)
		j++;
 80005e4:	e0bffe17 	ldw	r2,-8(fp)
 80005e8:	10800044 	addi	r2,r2,1
 80005ec:	e0bffe15 	stw	r2,-8(fp)
		while(message[j] != ',') {
 80005f0:	00001006 	br	8000634 <get_gps+0x2e4>
			*(ns_ind+i) = *(message+j);
 80005f4:	e0bffd17 	ldw	r2,-12(fp)
 80005f8:	1007883a 	mov	r3,r2
 80005fc:	e0bff584 	addi	r2,fp,-42
 8000600:	10c5883a 	add	r2,r2,r3
 8000604:	e0fffe17 	ldw	r3,-8(fp)
 8000608:	1809883a 	mov	r4,r3
 800060c:	e0ffd104 	addi	r3,fp,-188
 8000610:	1907883a 	add	r3,r3,r4
 8000614:	18c00003 	ldbu	r3,0(r3)
 8000618:	10c00005 	stb	r3,0(r2)
			i++;
 800061c:	e0bffd17 	ldw	r2,-12(fp)
 8000620:	10800044 	addi	r2,r2,1
 8000624:	e0bffd15 	stw	r2,-12(fp)
			j++;
 8000628:	e0bffe17 	ldw	r2,-8(fp)
 800062c:	10800044 	addi	r2,r2,1
 8000630:	e0bffe15 	stw	r2,-8(fp)
			j++;
		}
		*(latitude+i) = '\0';
		i=0;
		j++;
		while(message[j] != ',') {
 8000634:	e0bffe17 	ldw	r2,-8(fp)
 8000638:	e0ffd104 	addi	r3,fp,-188
 800063c:	1885883a 	add	r2,r3,r2
 8000640:	10800003 	ldbu	r2,0(r2)
 8000644:	10803fcc 	andi	r2,r2,255
 8000648:	1080201c 	xori	r2,r2,128
 800064c:	10bfe004 	addi	r2,r2,-128
 8000650:	10800b18 	cmpnei	r2,r2,44
 8000654:	103fe71e 	bne	r2,zero,80005f4 <__alt_data_end+0xfc0005f4>
			*(ns_ind+i) = *(message+j);
			i++;
			j++;
		}
		*(ns_ind+i) = '\0';
 8000658:	e0bffd17 	ldw	r2,-12(fp)
 800065c:	1007883a 	mov	r3,r2
 8000660:	e0bff584 	addi	r2,fp,-42
 8000664:	10c5883a 	add	r2,r2,r3
 8000668:	10000005 	stb	zero,0(r2)
		i=0;
 800066c:	e03ffd15 	stw	zero,-12(fp)
		j++;
 8000670:	e0bffe17 	ldw	r2,-8(fp)
 8000674:	10800044 	addi	r2,r2,1
 8000678:	e0bffe15 	stw	r2,-8(fp)
		while(message[j] != ',') {
 800067c:	00001006 	br	80006c0 <get_gps+0x370>
			*(longitude+i) = *(message+j);
 8000680:	e0bffd17 	ldw	r2,-12(fp)
 8000684:	1007883a 	mov	r3,r2
 8000688:	e0bff904 	addi	r2,fp,-28
 800068c:	10c5883a 	add	r2,r2,r3
 8000690:	e0fffe17 	ldw	r3,-8(fp)
 8000694:	1809883a 	mov	r4,r3
 8000698:	e0ffd104 	addi	r3,fp,-188
 800069c:	1907883a 	add	r3,r3,r4
 80006a0:	18c00003 	ldbu	r3,0(r3)
 80006a4:	10c00005 	stb	r3,0(r2)
			i++;
 80006a8:	e0bffd17 	ldw	r2,-12(fp)
 80006ac:	10800044 	addi	r2,r2,1
 80006b0:	e0bffd15 	stw	r2,-12(fp)
			j++;
 80006b4:	e0bffe17 	ldw	r2,-8(fp)
 80006b8:	10800044 	addi	r2,r2,1
 80006bc:	e0bffe15 	stw	r2,-8(fp)
			j++;
		}
		*(ns_ind+i) = '\0';
		i=0;
		j++;
		while(message[j] != ',') {
 80006c0:	e0bffe17 	ldw	r2,-8(fp)
 80006c4:	e0ffd104 	addi	r3,fp,-188
 80006c8:	1885883a 	add	r2,r3,r2
 80006cc:	10800003 	ldbu	r2,0(r2)
 80006d0:	10803fcc 	andi	r2,r2,255
 80006d4:	1080201c 	xori	r2,r2,128
 80006d8:	10bfe004 	addi	r2,r2,-128
 80006dc:	10800b18 	cmpnei	r2,r2,44
 80006e0:	103fe71e 	bne	r2,zero,8000680 <__alt_data_end+0xfc000680>
			*(longitude+i) = *(message+j);
			i++;
			j++;
		}
		*(longitude+i) = '\0';
 80006e4:	e0bffd17 	ldw	r2,-12(fp)
 80006e8:	1007883a 	mov	r3,r2
 80006ec:	e0bff904 	addi	r2,fp,-28
 80006f0:	10c5883a 	add	r2,r2,r3
 80006f4:	10000005 	stb	zero,0(r2)
		i=0;
 80006f8:	e03ffd15 	stw	zero,-12(fp)
		j++;
 80006fc:	e0bffe17 	ldw	r2,-8(fp)
 8000700:	10800044 	addi	r2,r2,1
 8000704:	e0bffe15 	stw	r2,-8(fp)
		while(message[j] != ',') {
 8000708:	00001006 	br	800074c <get_gps+0x3fc>
			*(ew_ind+i) = *(message+j);
 800070c:	e0bffd17 	ldw	r2,-12(fp)
 8000710:	1007883a 	mov	r3,r2
 8000714:	e0bff604 	addi	r2,fp,-40
 8000718:	10c5883a 	add	r2,r2,r3
 800071c:	e0fffe17 	ldw	r3,-8(fp)
 8000720:	1809883a 	mov	r4,r3
 8000724:	e0ffd104 	addi	r3,fp,-188
 8000728:	1907883a 	add	r3,r3,r4
 800072c:	18c00003 	ldbu	r3,0(r3)
 8000730:	10c00005 	stb	r3,0(r2)
			i++;
 8000734:	e0bffd17 	ldw	r2,-12(fp)
 8000738:	10800044 	addi	r2,r2,1
 800073c:	e0bffd15 	stw	r2,-12(fp)
			j++;
 8000740:	e0bffe17 	ldw	r2,-8(fp)
 8000744:	10800044 	addi	r2,r2,1
 8000748:	e0bffe15 	stw	r2,-8(fp)
			j++;
		}
		*(longitude+i) = '\0';
		i=0;
		j++;
		while(message[j] != ',') {
 800074c:	e0bffe17 	ldw	r2,-8(fp)
 8000750:	e0ffd104 	addi	r3,fp,-188
 8000754:	1885883a 	add	r2,r3,r2
 8000758:	10800003 	ldbu	r2,0(r2)
 800075c:	10803fcc 	andi	r2,r2,255
 8000760:	1080201c 	xori	r2,r2,128
 8000764:	10bfe004 	addi	r2,r2,-128
 8000768:	10800b18 	cmpnei	r2,r2,44
 800076c:	103fe71e 	bne	r2,zero,800070c <__alt_data_end+0xfc00070c>
			*(ew_ind+i) = *(message+j);
			i++;
			j++;
		}
		*(ew_ind+i) = '\0';
 8000770:	e0bffd17 	ldw	r2,-12(fp)
 8000774:	1007883a 	mov	r3,r2
 8000778:	e0bff604 	addi	r2,fp,-40
 800077c:	10c5883a 	add	r2,r2,r3
 8000780:	10000005 	stb	zero,0(r2)
		i=0;
 8000784:	e03ffd15 	stw	zero,-12(fp)
		j++;
 8000788:	e0bffe17 	ldw	r2,-8(fp)
 800078c:	10800044 	addi	r2,r2,1
 8000790:	e0bffe15 	stw	r2,-8(fp)
		while(message[j] != ',') {
 8000794:	00001006 	br	80007d8 <get_gps+0x488>
			*(gps_fix+i) = *(message+j);
 8000798:	e0bffd17 	ldw	r2,-12(fp)
 800079c:	1007883a 	mov	r3,r2
 80007a0:	e0bffbc4 	addi	r2,fp,-17
 80007a4:	10c5883a 	add	r2,r2,r3
 80007a8:	e0fffe17 	ldw	r3,-8(fp)
 80007ac:	1809883a 	mov	r4,r3
 80007b0:	e0ffd104 	addi	r3,fp,-188
 80007b4:	1907883a 	add	r3,r3,r4
 80007b8:	18c00003 	ldbu	r3,0(r3)
 80007bc:	10c00005 	stb	r3,0(r2)
			i++;
 80007c0:	e0bffd17 	ldw	r2,-12(fp)
 80007c4:	10800044 	addi	r2,r2,1
 80007c8:	e0bffd15 	stw	r2,-12(fp)
			j++;
 80007cc:	e0bffe17 	ldw	r2,-8(fp)
 80007d0:	10800044 	addi	r2,r2,1
 80007d4:	e0bffe15 	stw	r2,-8(fp)
			j++;
		}
		*(ew_ind+i) = '\0';
		i=0;
		j++;
		while(message[j] != ',') {
 80007d8:	e0bffe17 	ldw	r2,-8(fp)
 80007dc:	e0ffd104 	addi	r3,fp,-188
 80007e0:	1885883a 	add	r2,r3,r2
 80007e4:	10800003 	ldbu	r2,0(r2)
 80007e8:	10803fcc 	andi	r2,r2,255
 80007ec:	1080201c 	xori	r2,r2,128
 80007f0:	10bfe004 	addi	r2,r2,-128
 80007f4:	10800b18 	cmpnei	r2,r2,44
 80007f8:	103fe71e 	bne	r2,zero,8000798 <__alt_data_end+0xfc000798>
			*(gps_fix+i) = *(message+j);
			i++;
			j++;
		}
		*(gps_fix+i) = '\0';
 80007fc:	e0bffd17 	ldw	r2,-12(fp)
 8000800:	1007883a 	mov	r3,r2
 8000804:	e0bffbc4 	addi	r2,fp,-17
 8000808:	10c5883a 	add	r2,r2,r3
 800080c:	10000005 	stb	zero,0(r2)
		if(gps_fix[0] == '1' || gps_fix[0] == '2')
 8000810:	e0bffbc3 	ldbu	r2,-17(fp)
 8000814:	10803fcc 	andi	r2,r2,255
 8000818:	1080201c 	xori	r2,r2,128
 800081c:	10bfe004 	addi	r2,r2,-128
 8000820:	10800c60 	cmpeqi	r2,r2,49
 8000824:	1000061e 	bne	r2,zero,8000840 <get_gps+0x4f0>
 8000828:	e0bffbc3 	ldbu	r2,-17(fp)
 800082c:	10803fcc 	andi	r2,r2,255
 8000830:	1080201c 	xori	r2,r2,128
 8000834:	10bfe004 	addi	r2,r2,-128
 8000838:	10800c98 	cmpnei	r2,r2,50
 800083c:	1000031e 	bne	r2,zero,800084c <get_gps+0x4fc>
			have_link = 1;
 8000840:	00800044 	movi	r2,1
 8000844:	e0bfcc15 	stw	r2,-208(fp)
 8000848:	00000106 	br	8000850 <get_gps+0x500>
		else
			have_link = 0;
 800084c:	e03fcc15 	stw	zero,-208(fp)

		i=0;
 8000850:	e03ffd15 	stw	zero,-12(fp)
		j++;
 8000854:	e0bffe17 	ldw	r2,-8(fp)
 8000858:	10800044 	addi	r2,r2,1
 800085c:	e0bffe15 	stw	r2,-8(fp)
		while(message[j] != ',') {
 8000860:	00001006 	br	80008a4 <get_gps+0x554>
			*(no_sat+i) = *(message+j);
 8000864:	e0bffd17 	ldw	r2,-12(fp)
 8000868:	1007883a 	mov	r3,r2
 800086c:	e0bffc44 	addi	r2,fp,-15
 8000870:	10c5883a 	add	r2,r2,r3
 8000874:	e0fffe17 	ldw	r3,-8(fp)
 8000878:	1809883a 	mov	r4,r3
 800087c:	e0ffd104 	addi	r3,fp,-188
 8000880:	1907883a 	add	r3,r3,r4
 8000884:	18c00003 	ldbu	r3,0(r3)
 8000888:	10c00005 	stb	r3,0(r2)
			i++;
 800088c:	e0bffd17 	ldw	r2,-12(fp)
 8000890:	10800044 	addi	r2,r2,1
 8000894:	e0bffd15 	stw	r2,-12(fp)
			j++;
 8000898:	e0bffe17 	ldw	r2,-8(fp)
 800089c:	10800044 	addi	r2,r2,1
 80008a0:	e0bffe15 	stw	r2,-8(fp)
		else
			have_link = 0;

		i=0;
		j++;
		while(message[j] != ',') {
 80008a4:	e0bffe17 	ldw	r2,-8(fp)
 80008a8:	e0ffd104 	addi	r3,fp,-188
 80008ac:	1885883a 	add	r2,r3,r2
 80008b0:	10800003 	ldbu	r2,0(r2)
 80008b4:	10803fcc 	andi	r2,r2,255
 80008b8:	1080201c 	xori	r2,r2,128
 80008bc:	10bfe004 	addi	r2,r2,-128
 80008c0:	10800b18 	cmpnei	r2,r2,44
 80008c4:	103fe71e 	bne	r2,zero,8000864 <__alt_data_end+0xfc000864>
			*(no_sat+i) = *(message+j);
			i++;
			j++;
		}
		*(no_sat+i) = '\0';
 80008c8:	e0bffd17 	ldw	r2,-12(fp)
 80008cc:	1007883a 	mov	r3,r2
 80008d0:	e0bffc44 	addi	r2,fp,-15
 80008d4:	10c5883a 	add	r2,r2,r3
 80008d8:	10000005 	stb	zero,0(r2)
		*LEDs = atoi(no_sat);
 80008dc:	04000074 	movhi	r16,1
 80008e0:	84041804 	addi	r16,r16,4192
 80008e4:	e0bffc44 	addi	r2,fp,-15
 80008e8:	1009883a 	mov	r4,r2
 80008ec:	8000fc40 	call	8000fc4 <atoi>
 80008f0:	80800005 	stb	r2,0(r16)

		printf("message id = '%s'\n", message_id);
 80008f4:	e0bff104 	addi	r2,fp,-60
 80008f8:	01020074 	movhi	r4,2049
 80008fc:	2106a104 	addi	r4,r4,6788
 8000900:	100b883a 	mov	r5,r2
 8000904:	8002f8c0 	call	8002f8c <printf>
		printf("utc time = '%s'\n", utc_time);
 8000908:	e0bff2c4 	addi	r2,fp,-53
 800090c:	01020074 	movhi	r4,2049
 8000910:	2106a604 	addi	r4,r4,6808
 8000914:	100b883a 	mov	r5,r2
 8000918:	8002f8c0 	call	8002f8c <printf>
		printf("latitude = '%s'\n", latitude);
 800091c:	e0bff684 	addi	r2,fp,-38
 8000920:	01020074 	movhi	r4,2049
 8000924:	2106ab04 	addi	r4,r4,6828
 8000928:	100b883a 	mov	r5,r2
 800092c:	8002f8c0 	call	8002f8c <printf>
		printf("n/s indicator = '%s'\n", ns_ind);
 8000930:	e0bff584 	addi	r2,fp,-42
 8000934:	01020074 	movhi	r4,2049
 8000938:	2106b004 	addi	r4,r4,6848
 800093c:	100b883a 	mov	r5,r2
 8000940:	8002f8c0 	call	8002f8c <printf>
		printf("longitude = '%s'\n", longitude);
 8000944:	e0bff904 	addi	r2,fp,-28
 8000948:	01020074 	movhi	r4,2049
 800094c:	2106b604 	addi	r4,r4,6872
 8000950:	100b883a 	mov	r5,r2
 8000954:	8002f8c0 	call	8002f8c <printf>
		printf("e/w indicator = '%s'\n", ew_ind);
 8000958:	e0bff604 	addi	r2,fp,-40
 800095c:	01020074 	movhi	r4,2049
 8000960:	2106bb04 	addi	r4,r4,6892
 8000964:	100b883a 	mov	r5,r2
 8000968:	8002f8c0 	call	8002f8c <printf>
		printf("gps link = '%s'\n", gps_fix);
 800096c:	e0bffbc4 	addi	r2,fp,-17
 8000970:	01020074 	movhi	r4,2049
 8000974:	2106c104 	addi	r4,r4,6916
 8000978:	100b883a 	mov	r5,r2
 800097c:	8002f8c0 	call	8002f8c <printf>
		printf("# of satelites = '%s'\n", no_sat);
 8000980:	e0bffc44 	addi	r2,fp,-15
 8000984:	01020074 	movhi	r4,2049
 8000988:	2106c604 	addi	r4,r4,6936
 800098c:	100b883a 	mov	r5,r2
 8000990:	8002f8c0 	call	8002f8c <printf>

		*HEX0 = utc_time[5]-48;
 8000994:	00800074 	movhi	r2,1
 8000998:	10841004 	addi	r2,r2,4160
 800099c:	e0fff403 	ldbu	r3,-48(fp)
 80009a0:	18fff404 	addi	r3,r3,-48
 80009a4:	10c00005 	stb	r3,0(r2)
		*HEX1 = utc_time[4]-48;
 80009a8:	00800074 	movhi	r2,1
 80009ac:	10842c04 	addi	r2,r2,4272
 80009b0:	e0fff3c3 	ldbu	r3,-49(fp)
 80009b4:	18fff404 	addi	r3,r3,-48
 80009b8:	10c00005 	stb	r3,0(r2)
		*HEX2 = utc_time[3]-48;
 80009bc:	00800074 	movhi	r2,1
 80009c0:	10842804 	addi	r2,r2,4256
 80009c4:	e0fff383 	ldbu	r3,-50(fp)
 80009c8:	18fff404 	addi	r3,r3,-48
 80009cc:	10c00005 	stb	r3,0(r2)
		*HEX3 = utc_time[2]-48;
 80009d0:	00800074 	movhi	r2,1
 80009d4:	10842404 	addi	r2,r2,4240
 80009d8:	e0fff343 	ldbu	r3,-51(fp)
 80009dc:	18fff404 	addi	r3,r3,-48
 80009e0:	10c00005 	stb	r3,0(r2)
		*HEX4 = utc_time[1]-48;
 80009e4:	00800074 	movhi	r2,1
 80009e8:	10842004 	addi	r2,r2,4224
 80009ec:	e0fff303 	ldbu	r3,-52(fp)
 80009f0:	18fff404 	addi	r3,r3,-48
 80009f4:	10c00005 	stb	r3,0(r2)
		*HEX5 = utc_time[0]-48;
 80009f8:	00800074 	movhi	r2,1
 80009fc:	10841c04 	addi	r2,r2,4208
 8000a00:	e0fff2c3 	ldbu	r3,-53(fp)
 8000a04:	18fff404 	addi	r3,r3,-48
 8000a08:	10c00005 	stb	r3,0(r2)

	}
	fclose(fp);
 8000a0c:	e13fcf17 	ldw	r4,-196(fp)
 8000a10:	80010dc0 	call	80010dc <fclose>
	return have_link;
 8000a14:	e0bfcc17 	ldw	r2,-208(fp)
}
 8000a18:	e6ffff04 	addi	sp,fp,-4
 8000a1c:	dfc00217 	ldw	ra,8(sp)
 8000a20:	df000117 	ldw	fp,4(sp)
 8000a24:	dc000017 	ldw	r16,0(sp)
 8000a28:	dec00304 	addi	sp,sp,12
 8000a2c:	f800283a 	ret

08000a30 <erase_log>:

int erase_log() {
 8000a30:	defff204 	addi	sp,sp,-56
 8000a34:	dfc00d15 	stw	ra,52(sp)
 8000a38:	df000c15 	stw	fp,48(sp)
 8000a3c:	df000c04 	addi	fp,sp,48
	const char * REPLY = "$PMTK001,184,3*3D";
 8000a40:	00820074 	movhi	r2,2049
 8000a44:	1086cc04 	addi	r2,r2,6960
 8000a48:	e0bff715 	stw	r2,-36(fp)
	const char * ERASE = "$PMTK184,1*22\r\n";
 8000a4c:	00820074 	movhi	r2,2049
 8000a50:	1086d104 	addi	r2,r2,6980
 8000a54:	e0bff815 	stw	r2,-32(fp)
	FILE* fp;
	int check_type = 1;
 8000a58:	00800044 	movi	r2,1
 8000a5c:	e0bff415 	stw	r2,-48(fp)
	char incoming;
	char message[20];
	int i=0;
 8000a60:	e03ff615 	stw	zero,-40(fp)
	int hash = 2;
 8000a64:	00800084 	movi	r2,2
 8000a68:	e0bff915 	stw	r2,-28(fp)
	fp = fopen("/dev/uart_0", "r+");
 8000a6c:	01020074 	movhi	r4,2049
 8000a70:	21069904 	addi	r4,r4,6756
 8000a74:	01420074 	movhi	r5,2049
 8000a78:	29469c04 	addi	r5,r5,6768
 8000a7c:	80017ec0 	call	80017ec <fopen>
 8000a80:	e0bffa15 	stw	r2,-24(fp)
		if(fp == NULL)
 8000a84:	e0bffa17 	ldw	r2,-24(fp)
 8000a88:	1000041e 	bne	r2,zero,8000a9c <erase_log+0x6c>
			printf("RS232 error. \n");
 8000a8c:	01020074 	movhi	r4,2049
 8000a90:	21069d04 	addi	r4,r4,6772
 8000a94:	80030800 	call	8003080 <puts>
 8000a98:	00002e06 	br	8000b54 <erase_log+0x124>
		else {
			fwrite(ERASE, strlen(ERASE), 1, fp);
 8000a9c:	e13ff817 	ldw	r4,-32(fp)
 8000aa0:	80034700 	call	8003470 <strlen>
 8000aa4:	e13ff817 	ldw	r4,-32(fp)
 8000aa8:	100b883a 	mov	r5,r2
 8000aac:	01800044 	movi	r6,1
 8000ab0:	e1fffa17 	ldw	r7,-24(fp)
 8000ab4:	80023380 	call	8002338 <fwrite>

			while(check_type){
 8000ab8:	00002406 	br	8000b4c <erase_log+0x11c>
						while(incoming != '$') {
 8000abc:	00000306 	br	8000acc <erase_log+0x9c>
							incoming = getc(fp);
 8000ac0:	e13ffa17 	ldw	r4,-24(fp)
 8000ac4:	80023f80 	call	80023f8 <getc>
 8000ac8:	e0bff505 	stb	r2,-44(fp)
			printf("RS232 error. \n");
		else {
			fwrite(ERASE, strlen(ERASE), 1, fp);

			while(check_type){
						while(incoming != '$') {
 8000acc:	e0bff507 	ldb	r2,-44(fp)
 8000ad0:	10800918 	cmpnei	r2,r2,36
 8000ad4:	103ffa1e 	bne	r2,zero,8000ac0 <__alt_data_end+0xfc000ac0>
							incoming = getc(fp);
						}
						i=0;
 8000ad8:	e03ff615 	stw	zero,-40(fp)
						while(incoming != '\r') {
 8000adc:	00000b06 	br	8000b0c <erase_log+0xdc>
							*(message+i) = incoming;
 8000ae0:	e0bff617 	ldw	r2,-40(fp)
 8000ae4:	e0fffb04 	addi	r3,fp,-20
 8000ae8:	1885883a 	add	r2,r3,r2
 8000aec:	e0fff503 	ldbu	r3,-44(fp)
 8000af0:	10c00005 	stb	r3,0(r2)
							incoming = getc(fp);
 8000af4:	e13ffa17 	ldw	r4,-24(fp)
 8000af8:	80023f80 	call	80023f8 <getc>
 8000afc:	e0bff505 	stb	r2,-44(fp)
							i++;
 8000b00:	e0bff617 	ldw	r2,-40(fp)
 8000b04:	10800044 	addi	r2,r2,1
 8000b08:	e0bff615 	stw	r2,-40(fp)
			while(check_type){
						while(incoming != '$') {
							incoming = getc(fp);
						}
						i=0;
						while(incoming != '\r') {
 8000b0c:	e0bff507 	ldb	r2,-44(fp)
 8000b10:	10800358 	cmpnei	r2,r2,13
 8000b14:	103ff21e 	bne	r2,zero,8000ae0 <__alt_data_end+0xfc000ae0>
							*(message+i) = incoming;
							incoming = getc(fp);
							i++;
						}
						*(message+i) = '\0';
 8000b18:	e0bff617 	ldw	r2,-40(fp)
 8000b1c:	e0fffb04 	addi	r3,fp,-20
 8000b20:	1885883a 	add	r2,r3,r2
 8000b24:	10000005 	stb	zero,0(r2)
						hash = strncmp(message, REPLY, 17);
 8000b28:	e0bffb04 	addi	r2,fp,-20
 8000b2c:	1009883a 	mov	r4,r2
 8000b30:	e17ff717 	ldw	r5,-36(fp)
 8000b34:	01800444 	movi	r6,17
 8000b38:	80035080 	call	8003508 <strncmp>
 8000b3c:	e0bff915 	stw	r2,-28(fp)
//						printf("'%s' '%s' check = '%d'\n", message, REPLY, hash);
						if(hash == 0) {
 8000b40:	e0bff917 	ldw	r2,-28(fp)
 8000b44:	1000011e 	bne	r2,zero,8000b4c <erase_log+0x11c>
							check_type = 0;
 8000b48:	e03ff415 	stw	zero,-48(fp)
		if(fp == NULL)
			printf("RS232 error. \n");
		else {
			fwrite(ERASE, strlen(ERASE), 1, fp);

			while(check_type){
 8000b4c:	e0bff417 	ldw	r2,-48(fp)
 8000b50:	103fda1e 	bne	r2,zero,8000abc <__alt_data_end+0xfc000abc>
							check_type = 0;
						}
			}
		}

	if(!fclose(fp))
 8000b54:	e13ffa17 	ldw	r4,-24(fp)
 8000b58:	80010dc0 	call	80010dc <fclose>
 8000b5c:	1000021e 	bne	r2,zero,8000b68 <erase_log+0x138>
		return 1;
 8000b60:	00800044 	movi	r2,1
 8000b64:	00000106 	br	8000b6c <erase_log+0x13c>
	else
		return 0;
 8000b68:	0005883a 	mov	r2,zero
}
 8000b6c:	e037883a 	mov	sp,fp
 8000b70:	dfc00117 	ldw	ra,4(sp)
 8000b74:	df000017 	ldw	fp,0(sp)
 8000b78:	dec00204 	addi	sp,sp,8
 8000b7c:	f800283a 	ret

08000b80 <start_log>:

int start_log() {
 8000b80:	defff104 	addi	sp,sp,-60
 8000b84:	dfc00e15 	stw	ra,56(sp)
 8000b88:	df000d15 	stw	fp,52(sp)
 8000b8c:	df000d04 	addi	fp,sp,52
	const char * REPLY = "$PMTK001,185,3*3C";
 8000b90:	00820074 	movhi	r2,2049
 8000b94:	1086d504 	addi	r2,r2,6996
 8000b98:	e0bff615 	stw	r2,-40(fp)
	const char * START = "$PMTK185,0*22\r\n";
 8000b9c:	00820074 	movhi	r2,2049
 8000ba0:	1086da04 	addi	r2,r2,7016
 8000ba4:	e0bff715 	stw	r2,-36(fp)
	FILE* fp;
	int check_type = 1;
 8000ba8:	00800044 	movi	r2,1
 8000bac:	e0bff315 	stw	r2,-52(fp)
	char incoming;
	char message[20];
	int i=0;
 8000bb0:	e03ff515 	stw	zero,-44(fp)
	int checkcount = 0;
 8000bb4:	e03ff815 	stw	zero,-32(fp)
	int hash = 2;
 8000bb8:	00800084 	movi	r2,2
 8000bbc:	e0bff915 	stw	r2,-28(fp)
	fp = fopen("/dev/uart_0", "r+");
 8000bc0:	01020074 	movhi	r4,2049
 8000bc4:	21069904 	addi	r4,r4,6756
 8000bc8:	01420074 	movhi	r5,2049
 8000bcc:	29469c04 	addi	r5,r5,6768
 8000bd0:	80017ec0 	call	80017ec <fopen>
 8000bd4:	e0bffa15 	stw	r2,-24(fp)
		if(fp == NULL)
 8000bd8:	e0bffa17 	ldw	r2,-24(fp)
 8000bdc:	1000041e 	bne	r2,zero,8000bf0 <start_log+0x70>
			printf("RS232 error. \n");
 8000be0:	01020074 	movhi	r4,2049
 8000be4:	21069d04 	addi	r4,r4,6772
 8000be8:	80030800 	call	8003080 <puts>
 8000bec:	00003106 	br	8000cb4 <start_log+0x134>
		else {
			fwrite(START, strlen(START), 1, fp);
 8000bf0:	e13ff717 	ldw	r4,-36(fp)
 8000bf4:	80034700 	call	8003470 <strlen>
 8000bf8:	e13ff717 	ldw	r4,-36(fp)
 8000bfc:	100b883a 	mov	r5,r2
 8000c00:	01800044 	movi	r6,1
 8000c04:	e1fffa17 	ldw	r7,-24(fp)
 8000c08:	80023380 	call	8002338 <fwrite>

			while(check_type && checkcount <100){
 8000c0c:	00002406 	br	8000ca0 <start_log+0x120>
						while(incoming != '$') {
 8000c10:	00000306 	br	8000c20 <start_log+0xa0>
							incoming = getc(fp);
 8000c14:	e13ffa17 	ldw	r4,-24(fp)
 8000c18:	80023f80 	call	80023f8 <getc>
 8000c1c:	e0bff405 	stb	r2,-48(fp)
			printf("RS232 error. \n");
		else {
			fwrite(START, strlen(START), 1, fp);

			while(check_type && checkcount <100){
						while(incoming != '$') {
 8000c20:	e0bff407 	ldb	r2,-48(fp)
 8000c24:	10800918 	cmpnei	r2,r2,36
 8000c28:	103ffa1e 	bne	r2,zero,8000c14 <__alt_data_end+0xfc000c14>
							incoming = getc(fp);
						}
						i=0;
 8000c2c:	e03ff515 	stw	zero,-44(fp)
						while(incoming != '\r') {
 8000c30:	00000b06 	br	8000c60 <start_log+0xe0>
							*(message+i) = incoming;
 8000c34:	e0bff517 	ldw	r2,-44(fp)
 8000c38:	e0fffb04 	addi	r3,fp,-20
 8000c3c:	1885883a 	add	r2,r3,r2
 8000c40:	e0fff403 	ldbu	r3,-48(fp)
 8000c44:	10c00005 	stb	r3,0(r2)
							incoming = getc(fp);
 8000c48:	e13ffa17 	ldw	r4,-24(fp)
 8000c4c:	80023f80 	call	80023f8 <getc>
 8000c50:	e0bff405 	stb	r2,-48(fp)
							i++;
 8000c54:	e0bff517 	ldw	r2,-44(fp)
 8000c58:	10800044 	addi	r2,r2,1
 8000c5c:	e0bff515 	stw	r2,-44(fp)
			while(check_type && checkcount <100){
						while(incoming != '$') {
							incoming = getc(fp);
						}
						i=0;
						while(incoming != '\r') {
 8000c60:	e0bff407 	ldb	r2,-48(fp)
 8000c64:	10800358 	cmpnei	r2,r2,13
 8000c68:	103ff21e 	bne	r2,zero,8000c34 <__alt_data_end+0xfc000c34>
							*(message+i) = incoming;
							incoming = getc(fp);
							i++;
						}
						*(message+i) = '\0';
 8000c6c:	e0bff517 	ldw	r2,-44(fp)
 8000c70:	e0fffb04 	addi	r3,fp,-20
 8000c74:	1885883a 	add	r2,r3,r2
 8000c78:	10000005 	stb	zero,0(r2)
						hash = strncmp(message, REPLY, 17);
 8000c7c:	e0bffb04 	addi	r2,fp,-20
 8000c80:	1009883a 	mov	r4,r2
 8000c84:	e17ff617 	ldw	r5,-40(fp)
 8000c88:	01800444 	movi	r6,17
 8000c8c:	80035080 	call	8003508 <strncmp>
 8000c90:	e0bff915 	stw	r2,-28(fp)
//						printf("'%s' '%s' check = '%d'\n", message, REPLY, hash);
						if(hash == 0) {
 8000c94:	e0bff917 	ldw	r2,-28(fp)
 8000c98:	1000011e 	bne	r2,zero,8000ca0 <start_log+0x120>
							check_type = 0;
 8000c9c:	e03ff315 	stw	zero,-52(fp)
		if(fp == NULL)
			printf("RS232 error. \n");
		else {
			fwrite(START, strlen(START), 1, fp);

			while(check_type && checkcount <100){
 8000ca0:	e0bff317 	ldw	r2,-52(fp)
 8000ca4:	10000326 	beq	r2,zero,8000cb4 <start_log+0x134>
 8000ca8:	e0bff817 	ldw	r2,-32(fp)
 8000cac:	10801910 	cmplti	r2,r2,100
 8000cb0:	103fd71e 	bne	r2,zero,8000c10 <__alt_data_end+0xfc000c10>
							check_type = 0;
						}
			}
		}

	if(!fclose(fp))
 8000cb4:	e13ffa17 	ldw	r4,-24(fp)
 8000cb8:	80010dc0 	call	80010dc <fclose>
 8000cbc:	1000021e 	bne	r2,zero,8000cc8 <start_log+0x148>
		return 1;
 8000cc0:	00800044 	movi	r2,1
 8000cc4:	00000106 	br	8000ccc <start_log+0x14c>
	else
		return 0;
 8000cc8:	0005883a 	mov	r2,zero
}
 8000ccc:	e037883a 	mov	sp,fp
 8000cd0:	dfc00117 	ldw	ra,4(sp)
 8000cd4:	df000017 	ldw	fp,0(sp)
 8000cd8:	dec00204 	addi	sp,sp,8
 8000cdc:	f800283a 	ret

08000ce0 <snapshot_log>:

int snapshot_log() {
 8000ce0:	defff204 	addi	sp,sp,-56
 8000ce4:	dfc00d15 	stw	ra,52(sp)
 8000ce8:	df000c15 	stw	fp,48(sp)
 8000cec:	df000c04 	addi	fp,sp,48
	const char * REPLY = "$PMTK001,186,3*3F";
 8000cf0:	00820074 	movhi	r2,2049
 8000cf4:	1086de04 	addi	r2,r2,7032
 8000cf8:	e0bff715 	stw	r2,-36(fp)
	const char * SNAP = "$PMTK186,1*20\r\n";
 8000cfc:	00820074 	movhi	r2,2049
 8000d00:	1086e304 	addi	r2,r2,7052
 8000d04:	e0bff815 	stw	r2,-32(fp)
	FILE* fp;
	int check_type = 1;
 8000d08:	00800044 	movi	r2,1
 8000d0c:	e0bff415 	stw	r2,-48(fp)
	char incoming;
	char message[20];
	int i=0;
 8000d10:	e03ff615 	stw	zero,-40(fp)
	int hash = 2;
 8000d14:	00800084 	movi	r2,2
 8000d18:	e0bff915 	stw	r2,-28(fp)
	fp = fopen("/dev/uart_0", "r+");
 8000d1c:	01020074 	movhi	r4,2049
 8000d20:	21069904 	addi	r4,r4,6756
 8000d24:	01420074 	movhi	r5,2049
 8000d28:	29469c04 	addi	r5,r5,6768
 8000d2c:	80017ec0 	call	80017ec <fopen>
 8000d30:	e0bffa15 	stw	r2,-24(fp)
		if(fp == NULL)
 8000d34:	e0bffa17 	ldw	r2,-24(fp)
 8000d38:	1000041e 	bne	r2,zero,8000d4c <snapshot_log+0x6c>
			printf("RS232 error. \n");
 8000d3c:	01020074 	movhi	r4,2049
 8000d40:	21069d04 	addi	r4,r4,6772
 8000d44:	80030800 	call	8003080 <puts>
 8000d48:	00002e06 	br	8000e04 <snapshot_log+0x124>
		else {
			fwrite(SNAP, strlen(SNAP), 1, fp);
 8000d4c:	e13ff817 	ldw	r4,-32(fp)
 8000d50:	80034700 	call	8003470 <strlen>
 8000d54:	e13ff817 	ldw	r4,-32(fp)
 8000d58:	100b883a 	mov	r5,r2
 8000d5c:	01800044 	movi	r6,1
 8000d60:	e1fffa17 	ldw	r7,-24(fp)
 8000d64:	80023380 	call	8002338 <fwrite>

			while(check_type){
 8000d68:	00002406 	br	8000dfc <snapshot_log+0x11c>
						while(incoming != '$') {
 8000d6c:	00000306 	br	8000d7c <snapshot_log+0x9c>
							incoming = getc(fp);
 8000d70:	e13ffa17 	ldw	r4,-24(fp)
 8000d74:	80023f80 	call	80023f8 <getc>
 8000d78:	e0bff505 	stb	r2,-44(fp)
			printf("RS232 error. \n");
		else {
			fwrite(SNAP, strlen(SNAP), 1, fp);

			while(check_type){
						while(incoming != '$') {
 8000d7c:	e0bff507 	ldb	r2,-44(fp)
 8000d80:	10800918 	cmpnei	r2,r2,36
 8000d84:	103ffa1e 	bne	r2,zero,8000d70 <__alt_data_end+0xfc000d70>
							incoming = getc(fp);
						}
						i=0;
 8000d88:	e03ff615 	stw	zero,-40(fp)
						while(incoming != '\r') {
 8000d8c:	00000b06 	br	8000dbc <snapshot_log+0xdc>
							*(message+i) = incoming;
 8000d90:	e0bff617 	ldw	r2,-40(fp)
 8000d94:	e0fffb04 	addi	r3,fp,-20
 8000d98:	1885883a 	add	r2,r3,r2
 8000d9c:	e0fff503 	ldbu	r3,-44(fp)
 8000da0:	10c00005 	stb	r3,0(r2)
							incoming = getc(fp);
 8000da4:	e13ffa17 	ldw	r4,-24(fp)
 8000da8:	80023f80 	call	80023f8 <getc>
 8000dac:	e0bff505 	stb	r2,-44(fp)
							i++;
 8000db0:	e0bff617 	ldw	r2,-40(fp)
 8000db4:	10800044 	addi	r2,r2,1
 8000db8:	e0bff615 	stw	r2,-40(fp)
			while(check_type){
						while(incoming != '$') {
							incoming = getc(fp);
						}
						i=0;
						while(incoming != '\r') {
 8000dbc:	e0bff507 	ldb	r2,-44(fp)
 8000dc0:	10800358 	cmpnei	r2,r2,13
 8000dc4:	103ff21e 	bne	r2,zero,8000d90 <__alt_data_end+0xfc000d90>
							*(message+i) = incoming;
							incoming = getc(fp);
							i++;
						}
						*(message+i) = '\0';
 8000dc8:	e0bff617 	ldw	r2,-40(fp)
 8000dcc:	e0fffb04 	addi	r3,fp,-20
 8000dd0:	1885883a 	add	r2,r3,r2
 8000dd4:	10000005 	stb	zero,0(r2)
						hash = strncmp(message, REPLY, 17);
 8000dd8:	e0bffb04 	addi	r2,fp,-20
 8000ddc:	1009883a 	mov	r4,r2
 8000de0:	e17ff717 	ldw	r5,-36(fp)
 8000de4:	01800444 	movi	r6,17
 8000de8:	80035080 	call	8003508 <strncmp>
 8000dec:	e0bff915 	stw	r2,-28(fp)
//						printf("'%s' '%s' check = '%d'\n", message, REPLY, hash);
						if(hash == 0) {
 8000df0:	e0bff917 	ldw	r2,-28(fp)
 8000df4:	1000011e 	bne	r2,zero,8000dfc <snapshot_log+0x11c>
							check_type = 0;
 8000df8:	e03ff415 	stw	zero,-48(fp)
		if(fp == NULL)
			printf("RS232 error. \n");
		else {
			fwrite(SNAP, strlen(SNAP), 1, fp);

			while(check_type){
 8000dfc:	e0bff417 	ldw	r2,-48(fp)
 8000e00:	103fda1e 	bne	r2,zero,8000d6c <__alt_data_end+0xfc000d6c>
							check_type = 0;
						}
			}
		}

	if(!fclose(fp))
 8000e04:	e13ffa17 	ldw	r4,-24(fp)
 8000e08:	80010dc0 	call	80010dc <fclose>
 8000e0c:	1000021e 	bne	r2,zero,8000e18 <snapshot_log+0x138>
		return 1;
 8000e10:	00800044 	movi	r2,1
 8000e14:	00000106 	br	8000e1c <snapshot_log+0x13c>
	else
		return 0;
 8000e18:	0005883a 	mov	r2,zero
}
 8000e1c:	e037883a 	mov	sp,fp
 8000e20:	dfc00117 	ldw	ra,4(sp)
 8000e24:	df000017 	ldw	fp,0(sp)
 8000e28:	dec00204 	addi	sp,sp,8
 8000e2c:	f800283a 	ret

08000e30 <dump_log>:

int dump_log() {
 8000e30:	defff004 	addi	sp,sp,-64
 8000e34:	dfc00f15 	stw	ra,60(sp)
 8000e38:	df000e15 	stw	fp,56(sp)
 8000e3c:	df000e04 	addi	fp,sp,56
	const char * REPLY = "$PMTK001,622,3*36";
 8000e40:	00820074 	movhi	r2,2049
 8000e44:	1086e704 	addi	r2,r2,7068
 8000e48:	e0bff615 	stw	r2,-40(fp)
	const char * DUMP = "$PMTK622,1*29\r\n";
 8000e4c:	00820074 	movhi	r2,2049
 8000e50:	1086ec04 	addi	r2,r2,7088
 8000e54:	e0bff715 	stw	r2,-36(fp)
	FILE* fp;
	int check_type = 1;
 8000e58:	00800044 	movi	r2,1
 8000e5c:	e0bff215 	stw	r2,-56(fp)
	char incoming;
	char message[20];
	char *dump;
	int i=0;
 8000e60:	e03ff415 	stw	zero,-48(fp)
	int hash = 2;
 8000e64:	00800084 	movi	r2,2
 8000e68:	e0bff815 	stw	r2,-32(fp)
	fp = fopen("/dev/uart_0", "r+");
 8000e6c:	01020074 	movhi	r4,2049
 8000e70:	21069904 	addi	r4,r4,6756
 8000e74:	01420074 	movhi	r5,2049
 8000e78:	29469c04 	addi	r5,r5,6768
 8000e7c:	80017ec0 	call	80017ec <fopen>
 8000e80:	e0bff915 	stw	r2,-28(fp)
		if(fp == NULL)
 8000e84:	e0bff917 	ldw	r2,-28(fp)
 8000e88:	1000041e 	bne	r2,zero,8000e9c <dump_log+0x6c>
			printf("RS232 error. \n");
 8000e8c:	01020074 	movhi	r4,2049
 8000e90:	21069d04 	addi	r4,r4,6772
 8000e94:	80030800 	call	8003080 <puts>
 8000e98:	00003f06 	br	8000f98 <dump_log+0x168>
		else {
			fwrite(DUMP, strlen(DUMP), 1, fp);
 8000e9c:	e13ff717 	ldw	r4,-36(fp)
 8000ea0:	80034700 	call	8003470 <strlen>
 8000ea4:	e13ff717 	ldw	r4,-36(fp)
 8000ea8:	100b883a 	mov	r5,r2
 8000eac:	01800044 	movi	r6,1
 8000eb0:	e1fff917 	ldw	r7,-28(fp)
 8000eb4:	80023380 	call	8002338 <fwrite>

			while(check_type){
 8000eb8:	00003106 	br	8000f80 <dump_log+0x150>
						int j=0;
 8000ebc:	e03ff515 	stw	zero,-44(fp)
						while(incoming != '$') {
 8000ec0:	00000306 	br	8000ed0 <dump_log+0xa0>
							incoming = getc(fp);
 8000ec4:	e13ff917 	ldw	r4,-28(fp)
 8000ec8:	80023f80 	call	80023f8 <getc>
 8000ecc:	e0bff305 	stb	r2,-52(fp)
		else {
			fwrite(DUMP, strlen(DUMP), 1, fp);

			while(check_type){
						int j=0;
						while(incoming != '$') {
 8000ed0:	e0bff307 	ldb	r2,-52(fp)
 8000ed4:	10800918 	cmpnei	r2,r2,36
 8000ed8:	103ffa1e 	bne	r2,zero,8000ec4 <__alt_data_end+0xfc000ec4>
							incoming = getc(fp);
						}
						i=0;
 8000edc:	e03ff415 	stw	zero,-48(fp)
						while(incoming != '\r') {
 8000ee0:	00001306 	br	8000f30 <dump_log+0x100>
							*(message+i) = incoming;
 8000ee4:	e0bff417 	ldw	r2,-48(fp)
 8000ee8:	e0fffb04 	addi	r3,fp,-20
 8000eec:	1885883a 	add	r2,r3,r2
 8000ef0:	e0fff303 	ldbu	r3,-52(fp)
 8000ef4:	10c00005 	stb	r3,0(r2)
							*(dump+j) = incoming;
 8000ef8:	e0bff517 	ldw	r2,-44(fp)
 8000efc:	e0fffa17 	ldw	r3,-24(fp)
 8000f00:	1885883a 	add	r2,r3,r2
 8000f04:	e0fff303 	ldbu	r3,-52(fp)
 8000f08:	10c00005 	stb	r3,0(r2)
							incoming = getc(fp);
 8000f0c:	e13ff917 	ldw	r4,-28(fp)
 8000f10:	80023f80 	call	80023f8 <getc>
 8000f14:	e0bff305 	stb	r2,-52(fp)
							i++;
 8000f18:	e0bff417 	ldw	r2,-48(fp)
 8000f1c:	10800044 	addi	r2,r2,1
 8000f20:	e0bff415 	stw	r2,-48(fp)
							j++;
 8000f24:	e0bff517 	ldw	r2,-44(fp)
 8000f28:	10800044 	addi	r2,r2,1
 8000f2c:	e0bff515 	stw	r2,-44(fp)
						int j=0;
						while(incoming != '$') {
							incoming = getc(fp);
						}
						i=0;
						while(incoming != '\r') {
 8000f30:	e0bff307 	ldb	r2,-52(fp)
 8000f34:	10800358 	cmpnei	r2,r2,13
 8000f38:	103fea1e 	bne	r2,zero,8000ee4 <__alt_data_end+0xfc000ee4>
							*(dump+j) = incoming;
							incoming = getc(fp);
							i++;
							j++;
						}
						*(message+i) = '\0';
 8000f3c:	e0bff417 	ldw	r2,-48(fp)
 8000f40:	e0fffb04 	addi	r3,fp,-20
 8000f44:	1885883a 	add	r2,r3,r2
 8000f48:	10000005 	stb	zero,0(r2)
						*(dump+i) = '\0';
 8000f4c:	e0bff417 	ldw	r2,-48(fp)
 8000f50:	e0fffa17 	ldw	r3,-24(fp)
 8000f54:	1885883a 	add	r2,r3,r2
 8000f58:	10000005 	stb	zero,0(r2)
						hash = strncmp(message, REPLY, 17);
 8000f5c:	e0bffb04 	addi	r2,fp,-20
 8000f60:	1009883a 	mov	r4,r2
 8000f64:	e17ff617 	ldw	r5,-40(fp)
 8000f68:	01800444 	movi	r6,17
 8000f6c:	80035080 	call	8003508 <strncmp>
 8000f70:	e0bff815 	stw	r2,-32(fp)
//						printf("'%s' '%s' check = '%d'\n", message, REPLY, hash);
						if(hash == 0) {
 8000f74:	e0bff817 	ldw	r2,-32(fp)
 8000f78:	1000011e 	bne	r2,zero,8000f80 <dump_log+0x150>
							check_type = 0;
 8000f7c:	e03ff215 	stw	zero,-56(fp)
		if(fp == NULL)
			printf("RS232 error. \n");
		else {
			fwrite(DUMP, strlen(DUMP), 1, fp);

			while(check_type){
 8000f80:	e0bff217 	ldw	r2,-56(fp)
 8000f84:	103fcd1e 	bne	r2,zero,8000ebc <__alt_data_end+0xfc000ebc>
//						printf("'%s' '%s' check = '%d'\n", message, REPLY, hash);
						if(hash == 0) {
							check_type = 0;
						}
			}
			printf("\n\n%s\n\n", dump);
 8000f88:	01020074 	movhi	r4,2049
 8000f8c:	2106f004 	addi	r4,r4,7104
 8000f90:	e17ffa17 	ldw	r5,-24(fp)
 8000f94:	8002f8c0 	call	8002f8c <printf>
		}

	if(!fclose(fp))
 8000f98:	e13ff917 	ldw	r4,-28(fp)
 8000f9c:	80010dc0 	call	80010dc <fclose>
 8000fa0:	1000021e 	bne	r2,zero,8000fac <dump_log+0x17c>
		return 1;
 8000fa4:	00800044 	movi	r2,1
 8000fa8:	00000106 	br	8000fb0 <dump_log+0x180>
	else
		return 0;
 8000fac:	0005883a 	mov	r2,zero
}
 8000fb0:	e037883a 	mov	sp,fp
 8000fb4:	dfc00117 	ldw	ra,4(sp)
 8000fb8:	df000017 	ldw	fp,0(sp)
 8000fbc:	dec00204 	addi	sp,sp,8
 8000fc0:	f800283a 	ret

08000fc4 <atoi>:
 8000fc4:	000b883a 	mov	r5,zero
 8000fc8:	01800284 	movi	r6,10
 8000fcc:	80038301 	jmpi	8003830 <strtol>

08000fd0 <_atoi_r>:
 8000fd0:	000d883a 	mov	r6,zero
 8000fd4:	01c00284 	movi	r7,10
 8000fd8:	80035c81 	jmpi	80035c8 <_strtol_r>

08000fdc <_fclose_r>:
 8000fdc:	28003226 	beq	r5,zero,80010a8 <_fclose_r+0xcc>
 8000fe0:	defffc04 	addi	sp,sp,-16
 8000fe4:	dc400115 	stw	r17,4(sp)
 8000fe8:	2023883a 	mov	r17,r4
 8000fec:	dc000015 	stw	r16,0(sp)
 8000ff0:	dfc00315 	stw	ra,12(sp)
 8000ff4:	dc800215 	stw	r18,8(sp)
 8000ff8:	2821883a 	mov	r16,r5
 8000ffc:	80016bc0 	call	80016bc <__sfp_lock_acquire>
 8001000:	88000226 	beq	r17,zero,800100c <_fclose_r+0x30>
 8001004:	88800e17 	ldw	r2,56(r17)
 8001008:	10002926 	beq	r2,zero,80010b0 <_fclose_r+0xd4>
 800100c:	8080030f 	ldh	r2,12(r16)
 8001010:	10002226 	beq	r2,zero,800109c <_fclose_r+0xc0>
 8001014:	8809883a 	mov	r4,r17
 8001018:	800b883a 	mov	r5,r16
 800101c:	80010f00 	call	80010f0 <_fflush_r>
 8001020:	1025883a 	mov	r18,r2
 8001024:	80800b17 	ldw	r2,44(r16)
 8001028:	10000426 	beq	r2,zero,800103c <_fclose_r+0x60>
 800102c:	81400717 	ldw	r5,28(r16)
 8001030:	8809883a 	mov	r4,r17
 8001034:	103ee83a 	callr	r2
 8001038:	10002616 	blt	r2,zero,80010d4 <_fclose_r+0xf8>
 800103c:	8080030b 	ldhu	r2,12(r16)
 8001040:	1080200c 	andi	r2,r2,128
 8001044:	10001f1e 	bne	r2,zero,80010c4 <_fclose_r+0xe8>
 8001048:	81400c17 	ldw	r5,48(r16)
 800104c:	28000526 	beq	r5,zero,8001064 <_fclose_r+0x88>
 8001050:	80801004 	addi	r2,r16,64
 8001054:	28800226 	beq	r5,r2,8001060 <_fclose_r+0x84>
 8001058:	8809883a 	mov	r4,r17
 800105c:	800192c0 	call	800192c <_free_r>
 8001060:	80000c15 	stw	zero,48(r16)
 8001064:	81401117 	ldw	r5,68(r16)
 8001068:	28000326 	beq	r5,zero,8001078 <_fclose_r+0x9c>
 800106c:	8809883a 	mov	r4,r17
 8001070:	800192c0 	call	800192c <_free_r>
 8001074:	80001115 	stw	zero,68(r16)
 8001078:	8000030d 	sth	zero,12(r16)
 800107c:	80016c00 	call	80016c0 <__sfp_lock_release>
 8001080:	9005883a 	mov	r2,r18
 8001084:	dfc00317 	ldw	ra,12(sp)
 8001088:	dc800217 	ldw	r18,8(sp)
 800108c:	dc400117 	ldw	r17,4(sp)
 8001090:	dc000017 	ldw	r16,0(sp)
 8001094:	dec00404 	addi	sp,sp,16
 8001098:	f800283a 	ret
 800109c:	80016c00 	call	80016c0 <__sfp_lock_release>
 80010a0:	0005883a 	mov	r2,zero
 80010a4:	003ff706 	br	8001084 <__alt_data_end+0xfc001084>
 80010a8:	0005883a 	mov	r2,zero
 80010ac:	f800283a 	ret
 80010b0:	8809883a 	mov	r4,r17
 80010b4:	80016ac0 	call	80016ac <__sinit>
 80010b8:	8080030f 	ldh	r2,12(r16)
 80010bc:	103fd51e 	bne	r2,zero,8001014 <__alt_data_end+0xfc001014>
 80010c0:	003ff606 	br	800109c <__alt_data_end+0xfc00109c>
 80010c4:	81400417 	ldw	r5,16(r16)
 80010c8:	8809883a 	mov	r4,r17
 80010cc:	800192c0 	call	800192c <_free_r>
 80010d0:	003fdd06 	br	8001048 <__alt_data_end+0xfc001048>
 80010d4:	04bfffc4 	movi	r18,-1
 80010d8:	003fd806 	br	800103c <__alt_data_end+0xfc00103c>

080010dc <fclose>:
 80010dc:	00820074 	movhi	r2,2049
 80010e0:	108f3204 	addi	r2,r2,15560
 80010e4:	200b883a 	mov	r5,r4
 80010e8:	11000017 	ldw	r4,0(r2)
 80010ec:	8000fdc1 	jmpi	8000fdc <_fclose_r>

080010f0 <_fflush_r>:
 80010f0:	defffb04 	addi	sp,sp,-20
 80010f4:	dcc00315 	stw	r19,12(sp)
 80010f8:	dc000015 	stw	r16,0(sp)
 80010fc:	dfc00415 	stw	ra,16(sp)
 8001100:	dc800215 	stw	r18,8(sp)
 8001104:	dc400115 	stw	r17,4(sp)
 8001108:	2027883a 	mov	r19,r4
 800110c:	2821883a 	mov	r16,r5
 8001110:	20000226 	beq	r4,zero,800111c <_fflush_r+0x2c>
 8001114:	20800e17 	ldw	r2,56(r4)
 8001118:	10005326 	beq	r2,zero,8001268 <_fflush_r+0x178>
 800111c:	8080030b 	ldhu	r2,12(r16)
 8001120:	10ffffcc 	andi	r3,r2,65535
 8001124:	18e0001c 	xori	r3,r3,32768
 8001128:	18e00004 	addi	r3,r3,-32768
 800112c:	18002c26 	beq	r3,zero,80011e0 <_fflush_r+0xf0>
 8001130:	10c0020c 	andi	r3,r2,8
 8001134:	1800321e 	bne	r3,zero,8001200 <_fflush_r+0x110>
 8001138:	80c00117 	ldw	r3,4(r16)
 800113c:	10820014 	ori	r2,r2,2048
 8001140:	8080030d 	sth	r2,12(r16)
 8001144:	00c0570e 	bge	zero,r3,80012a4 <_fflush_r+0x1b4>
 8001148:	82000a17 	ldw	r8,40(r16)
 800114c:	40002426 	beq	r8,zero,80011e0 <_fflush_r+0xf0>
 8001150:	9c400017 	ldw	r17,0(r19)
 8001154:	10c4000c 	andi	r3,r2,4096
 8001158:	98000015 	stw	zero,0(r19)
 800115c:	18004626 	beq	r3,zero,8001278 <_fflush_r+0x188>
 8001160:	81801417 	ldw	r6,80(r16)
 8001164:	10c0010c 	andi	r3,r2,4
 8001168:	18000626 	beq	r3,zero,8001184 <_fflush_r+0x94>
 800116c:	80c00117 	ldw	r3,4(r16)
 8001170:	80800c17 	ldw	r2,48(r16)
 8001174:	30cdc83a 	sub	r6,r6,r3
 8001178:	10000226 	beq	r2,zero,8001184 <_fflush_r+0x94>
 800117c:	80800f17 	ldw	r2,60(r16)
 8001180:	308dc83a 	sub	r6,r6,r2
 8001184:	81400717 	ldw	r5,28(r16)
 8001188:	9809883a 	mov	r4,r19
 800118c:	000f883a 	mov	r7,zero
 8001190:	403ee83a 	callr	r8
 8001194:	00ffffc4 	movi	r3,-1
 8001198:	10c04526 	beq	r2,r3,80012b0 <_fflush_r+0x1c0>
 800119c:	80c0030b 	ldhu	r3,12(r16)
 80011a0:	81000417 	ldw	r4,16(r16)
 80011a4:	80000115 	stw	zero,4(r16)
 80011a8:	197dffcc 	andi	r5,r3,63487
 80011ac:	8140030d 	sth	r5,12(r16)
 80011b0:	81000015 	stw	r4,0(r16)
 80011b4:	18c4000c 	andi	r3,r3,4096
 80011b8:	18000126 	beq	r3,zero,80011c0 <_fflush_r+0xd0>
 80011bc:	80801415 	stw	r2,80(r16)
 80011c0:	81400c17 	ldw	r5,48(r16)
 80011c4:	9c400015 	stw	r17,0(r19)
 80011c8:	28000526 	beq	r5,zero,80011e0 <_fflush_r+0xf0>
 80011cc:	80801004 	addi	r2,r16,64
 80011d0:	28800226 	beq	r5,r2,80011dc <_fflush_r+0xec>
 80011d4:	9809883a 	mov	r4,r19
 80011d8:	800192c0 	call	800192c <_free_r>
 80011dc:	80000c15 	stw	zero,48(r16)
 80011e0:	0005883a 	mov	r2,zero
 80011e4:	dfc00417 	ldw	ra,16(sp)
 80011e8:	dcc00317 	ldw	r19,12(sp)
 80011ec:	dc800217 	ldw	r18,8(sp)
 80011f0:	dc400117 	ldw	r17,4(sp)
 80011f4:	dc000017 	ldw	r16,0(sp)
 80011f8:	dec00504 	addi	sp,sp,20
 80011fc:	f800283a 	ret
 8001200:	84800417 	ldw	r18,16(r16)
 8001204:	903ff626 	beq	r18,zero,80011e0 <__alt_data_end+0xfc0011e0>
 8001208:	84400017 	ldw	r17,0(r16)
 800120c:	108000cc 	andi	r2,r2,3
 8001210:	84800015 	stw	r18,0(r16)
 8001214:	8ca3c83a 	sub	r17,r17,r18
 8001218:	10001526 	beq	r2,zero,8001270 <_fflush_r+0x180>
 800121c:	0005883a 	mov	r2,zero
 8001220:	80800215 	stw	r2,8(r16)
 8001224:	04400316 	blt	zero,r17,8001234 <_fflush_r+0x144>
 8001228:	003fed06 	br	80011e0 <__alt_data_end+0xfc0011e0>
 800122c:	90a5883a 	add	r18,r18,r2
 8001230:	047feb0e 	bge	zero,r17,80011e0 <__alt_data_end+0xfc0011e0>
 8001234:	80800917 	ldw	r2,36(r16)
 8001238:	81400717 	ldw	r5,28(r16)
 800123c:	880f883a 	mov	r7,r17
 8001240:	900d883a 	mov	r6,r18
 8001244:	9809883a 	mov	r4,r19
 8001248:	103ee83a 	callr	r2
 800124c:	88a3c83a 	sub	r17,r17,r2
 8001250:	00bff616 	blt	zero,r2,800122c <__alt_data_end+0xfc00122c>
 8001254:	80c0030b 	ldhu	r3,12(r16)
 8001258:	00bfffc4 	movi	r2,-1
 800125c:	18c01014 	ori	r3,r3,64
 8001260:	80c0030d 	sth	r3,12(r16)
 8001264:	003fdf06 	br	80011e4 <__alt_data_end+0xfc0011e4>
 8001268:	80016ac0 	call	80016ac <__sinit>
 800126c:	003fab06 	br	800111c <__alt_data_end+0xfc00111c>
 8001270:	80800517 	ldw	r2,20(r16)
 8001274:	003fea06 	br	8001220 <__alt_data_end+0xfc001220>
 8001278:	81400717 	ldw	r5,28(r16)
 800127c:	000d883a 	mov	r6,zero
 8001280:	9809883a 	mov	r4,r19
 8001284:	01c00044 	movi	r7,1
 8001288:	403ee83a 	callr	r8
 800128c:	100d883a 	mov	r6,r2
 8001290:	00bfffc4 	movi	r2,-1
 8001294:	30801326 	beq	r6,r2,80012e4 <_fflush_r+0x1f4>
 8001298:	8080030b 	ldhu	r2,12(r16)
 800129c:	82000a17 	ldw	r8,40(r16)
 80012a0:	003fb006 	br	8001164 <__alt_data_end+0xfc001164>
 80012a4:	80c00f17 	ldw	r3,60(r16)
 80012a8:	00ffa716 	blt	zero,r3,8001148 <__alt_data_end+0xfc001148>
 80012ac:	003fcc06 	br	80011e0 <__alt_data_end+0xfc0011e0>
 80012b0:	98c00017 	ldw	r3,0(r19)
 80012b4:	183fb926 	beq	r3,zero,800119c <__alt_data_end+0xfc00119c>
 80012b8:	01000744 	movi	r4,29
 80012bc:	19000226 	beq	r3,r4,80012c8 <_fflush_r+0x1d8>
 80012c0:	01000584 	movi	r4,22
 80012c4:	1900101e 	bne	r3,r4,8001308 <_fflush_r+0x218>
 80012c8:	8080030b 	ldhu	r2,12(r16)
 80012cc:	80c00417 	ldw	r3,16(r16)
 80012d0:	80000115 	stw	zero,4(r16)
 80012d4:	10bdffcc 	andi	r2,r2,63487
 80012d8:	8080030d 	sth	r2,12(r16)
 80012dc:	80c00015 	stw	r3,0(r16)
 80012e0:	003fb706 	br	80011c0 <__alt_data_end+0xfc0011c0>
 80012e4:	98800017 	ldw	r2,0(r19)
 80012e8:	103feb26 	beq	r2,zero,8001298 <__alt_data_end+0xfc001298>
 80012ec:	00c00744 	movi	r3,29
 80012f0:	10c00226 	beq	r2,r3,80012fc <_fflush_r+0x20c>
 80012f4:	00c00584 	movi	r3,22
 80012f8:	10ffd61e 	bne	r2,r3,8001254 <__alt_data_end+0xfc001254>
 80012fc:	9c400015 	stw	r17,0(r19)
 8001300:	0005883a 	mov	r2,zero
 8001304:	003fb706 	br	80011e4 <__alt_data_end+0xfc0011e4>
 8001308:	80c0030b 	ldhu	r3,12(r16)
 800130c:	18c01014 	ori	r3,r3,64
 8001310:	80c0030d 	sth	r3,12(r16)
 8001314:	003fb306 	br	80011e4 <__alt_data_end+0xfc0011e4>

08001318 <fflush>:
 8001318:	20000526 	beq	r4,zero,8001330 <fflush+0x18>
 800131c:	00820074 	movhi	r2,2049
 8001320:	108f3204 	addi	r2,r2,15560
 8001324:	200b883a 	mov	r5,r4
 8001328:	11000017 	ldw	r4,0(r2)
 800132c:	80010f01 	jmpi	80010f0 <_fflush_r>
 8001330:	00820074 	movhi	r2,2049
 8001334:	108f3104 	addi	r2,r2,15556
 8001338:	11000017 	ldw	r4,0(r2)
 800133c:	01420034 	movhi	r5,2048
 8001340:	29443c04 	addi	r5,r5,4336
 8001344:	80021a41 	jmpi	80021a4 <_fwalk_reent>

08001348 <__fp_lock>:
 8001348:	0005883a 	mov	r2,zero
 800134c:	f800283a 	ret

08001350 <__fp_unlock>:
 8001350:	0005883a 	mov	r2,zero
 8001354:	f800283a 	ret

08001358 <_cleanup_r>:
 8001358:	01420034 	movhi	r5,2048
 800135c:	29443704 	addi	r5,r5,4316
 8001360:	80020ec1 	jmpi	80020ec <_fwalk>

08001364 <__sinit.part.1>:
 8001364:	defff604 	addi	sp,sp,-40
 8001368:	00c20034 	movhi	r3,2048
 800136c:	dfc00915 	stw	ra,36(sp)
 8001370:	df000815 	stw	fp,32(sp)
 8001374:	ddc00715 	stw	r23,28(sp)
 8001378:	dd800615 	stw	r22,24(sp)
 800137c:	dd400515 	stw	r21,20(sp)
 8001380:	dd000415 	stw	r20,16(sp)
 8001384:	dcc00315 	stw	r19,12(sp)
 8001388:	dc800215 	stw	r18,8(sp)
 800138c:	dc400115 	stw	r17,4(sp)
 8001390:	dc000015 	stw	r16,0(sp)
 8001394:	18c4d604 	addi	r3,r3,4952
 8001398:	24000117 	ldw	r16,4(r4)
 800139c:	20c00f15 	stw	r3,60(r4)
 80013a0:	07000044 	movi	fp,1
 80013a4:	00c000c4 	movi	r3,3
 80013a8:	2080bb04 	addi	r2,r4,748
 80013ac:	20c0b915 	stw	r3,740(r4)
 80013b0:	27000e15 	stw	fp,56(r4)
 80013b4:	2080ba15 	stw	r2,744(r4)
 80013b8:	2000b815 	stw	zero,736(r4)
 80013bc:	05c00204 	movi	r23,8
 80013c0:	00800104 	movi	r2,4
 80013c4:	2025883a 	mov	r18,r4
 80013c8:	b80d883a 	mov	r6,r23
 80013cc:	81001704 	addi	r4,r16,92
 80013d0:	000b883a 	mov	r5,zero
 80013d4:	80000015 	stw	zero,0(r16)
 80013d8:	80000115 	stw	zero,4(r16)
 80013dc:	80000215 	stw	zero,8(r16)
 80013e0:	8080030d 	sth	r2,12(r16)
 80013e4:	80001915 	stw	zero,100(r16)
 80013e8:	8000038d 	sth	zero,14(r16)
 80013ec:	80000415 	stw	zero,16(r16)
 80013f0:	80000515 	stw	zero,20(r16)
 80013f4:	80000615 	stw	zero,24(r16)
 80013f8:	8002de00 	call	8002de0 <memset>
 80013fc:	05820034 	movhi	r22,2048
 8001400:	94400217 	ldw	r17,8(r18)
 8001404:	05420034 	movhi	r21,2048
 8001408:	05020034 	movhi	r20,2048
 800140c:	04c20034 	movhi	r19,2048
 8001410:	b58ccd04 	addi	r22,r22,13108
 8001414:	ad4ce404 	addi	r21,r21,13200
 8001418:	a50d0304 	addi	r20,r20,13324
 800141c:	9ccd1a04 	addi	r19,r19,13416
 8001420:	85800815 	stw	r22,32(r16)
 8001424:	85400915 	stw	r21,36(r16)
 8001428:	85000a15 	stw	r20,40(r16)
 800142c:	84c00b15 	stw	r19,44(r16)
 8001430:	84000715 	stw	r16,28(r16)
 8001434:	00800284 	movi	r2,10
 8001438:	89001704 	addi	r4,r17,92
 800143c:	b80d883a 	mov	r6,r23
 8001440:	000b883a 	mov	r5,zero
 8001444:	88000015 	stw	zero,0(r17)
 8001448:	88000115 	stw	zero,4(r17)
 800144c:	88000215 	stw	zero,8(r17)
 8001450:	8880030d 	sth	r2,12(r17)
 8001454:	88001915 	stw	zero,100(r17)
 8001458:	8f00038d 	sth	fp,14(r17)
 800145c:	88000415 	stw	zero,16(r17)
 8001460:	88000515 	stw	zero,20(r17)
 8001464:	88000615 	stw	zero,24(r17)
 8001468:	8002de00 	call	8002de0 <memset>
 800146c:	94000317 	ldw	r16,12(r18)
 8001470:	00800484 	movi	r2,18
 8001474:	8c400715 	stw	r17,28(r17)
 8001478:	8d800815 	stw	r22,32(r17)
 800147c:	8d400915 	stw	r21,36(r17)
 8001480:	8d000a15 	stw	r20,40(r17)
 8001484:	8cc00b15 	stw	r19,44(r17)
 8001488:	8080030d 	sth	r2,12(r16)
 800148c:	00800084 	movi	r2,2
 8001490:	80000015 	stw	zero,0(r16)
 8001494:	80000115 	stw	zero,4(r16)
 8001498:	80000215 	stw	zero,8(r16)
 800149c:	80001915 	stw	zero,100(r16)
 80014a0:	8080038d 	sth	r2,14(r16)
 80014a4:	80000415 	stw	zero,16(r16)
 80014a8:	80000515 	stw	zero,20(r16)
 80014ac:	80000615 	stw	zero,24(r16)
 80014b0:	81001704 	addi	r4,r16,92
 80014b4:	000b883a 	mov	r5,zero
 80014b8:	b80d883a 	mov	r6,r23
 80014bc:	8002de00 	call	8002de0 <memset>
 80014c0:	84000715 	stw	r16,28(r16)
 80014c4:	85800815 	stw	r22,32(r16)
 80014c8:	85400915 	stw	r21,36(r16)
 80014cc:	85000a15 	stw	r20,40(r16)
 80014d0:	84c00b15 	stw	r19,44(r16)
 80014d4:	dfc00917 	ldw	ra,36(sp)
 80014d8:	df000817 	ldw	fp,32(sp)
 80014dc:	ddc00717 	ldw	r23,28(sp)
 80014e0:	dd800617 	ldw	r22,24(sp)
 80014e4:	dd400517 	ldw	r21,20(sp)
 80014e8:	dd000417 	ldw	r20,16(sp)
 80014ec:	dcc00317 	ldw	r19,12(sp)
 80014f0:	dc800217 	ldw	r18,8(sp)
 80014f4:	dc400117 	ldw	r17,4(sp)
 80014f8:	dc000017 	ldw	r16,0(sp)
 80014fc:	dec00a04 	addi	sp,sp,40
 8001500:	f800283a 	ret

08001504 <__sfmoreglue>:
 8001504:	defffc04 	addi	sp,sp,-16
 8001508:	dc800215 	stw	r18,8(sp)
 800150c:	2825883a 	mov	r18,r5
 8001510:	dc000015 	stw	r16,0(sp)
 8001514:	01401a04 	movi	r5,104
 8001518:	2021883a 	mov	r16,r4
 800151c:	9009883a 	mov	r4,r18
 8001520:	dfc00315 	stw	ra,12(sp)
 8001524:	dc400115 	stw	r17,4(sp)
 8001528:	800bf500 	call	800bf50 <__mulsi3>
 800152c:	8009883a 	mov	r4,r16
 8001530:	11400304 	addi	r5,r2,12
 8001534:	1023883a 	mov	r17,r2
 8001538:	80026380 	call	8002638 <_malloc_r>
 800153c:	1021883a 	mov	r16,r2
 8001540:	10000726 	beq	r2,zero,8001560 <__sfmoreglue+0x5c>
 8001544:	11000304 	addi	r4,r2,12
 8001548:	10000015 	stw	zero,0(r2)
 800154c:	14800115 	stw	r18,4(r2)
 8001550:	11000215 	stw	r4,8(r2)
 8001554:	000b883a 	mov	r5,zero
 8001558:	880d883a 	mov	r6,r17
 800155c:	8002de00 	call	8002de0 <memset>
 8001560:	8005883a 	mov	r2,r16
 8001564:	dfc00317 	ldw	ra,12(sp)
 8001568:	dc800217 	ldw	r18,8(sp)
 800156c:	dc400117 	ldw	r17,4(sp)
 8001570:	dc000017 	ldw	r16,0(sp)
 8001574:	dec00404 	addi	sp,sp,16
 8001578:	f800283a 	ret

0800157c <__sfp>:
 800157c:	00820074 	movhi	r2,2049
 8001580:	defffb04 	addi	sp,sp,-20
 8001584:	108f3104 	addi	r2,r2,15556
 8001588:	dc800215 	stw	r18,8(sp)
 800158c:	14800017 	ldw	r18,0(r2)
 8001590:	dcc00315 	stw	r19,12(sp)
 8001594:	dfc00415 	stw	ra,16(sp)
 8001598:	90800e17 	ldw	r2,56(r18)
 800159c:	dc400115 	stw	r17,4(sp)
 80015a0:	dc000015 	stw	r16,0(sp)
 80015a4:	2027883a 	mov	r19,r4
 80015a8:	1000021e 	bne	r2,zero,80015b4 <__sfp+0x38>
 80015ac:	9009883a 	mov	r4,r18
 80015b0:	80013640 	call	8001364 <__sinit.part.1>
 80015b4:	9480b804 	addi	r18,r18,736
 80015b8:	047fffc4 	movi	r17,-1
 80015bc:	91400117 	ldw	r5,4(r18)
 80015c0:	94000217 	ldw	r16,8(r18)
 80015c4:	297fffc4 	addi	r5,r5,-1
 80015c8:	28000a16 	blt	r5,zero,80015f4 <__sfp+0x78>
 80015cc:	8080030f 	ldh	r2,12(r16)
 80015d0:	10000c26 	beq	r2,zero,8001604 <__sfp+0x88>
 80015d4:	80c01d04 	addi	r3,r16,116
 80015d8:	00000206 	br	80015e4 <__sfp+0x68>
 80015dc:	18bfe60f 	ldh	r2,-104(r3)
 80015e0:	10000826 	beq	r2,zero,8001604 <__sfp+0x88>
 80015e4:	297fffc4 	addi	r5,r5,-1
 80015e8:	1c3ffd04 	addi	r16,r3,-12
 80015ec:	18c01a04 	addi	r3,r3,104
 80015f0:	2c7ffa1e 	bne	r5,r17,80015dc <__alt_data_end+0xfc0015dc>
 80015f4:	90800017 	ldw	r2,0(r18)
 80015f8:	10001d26 	beq	r2,zero,8001670 <__sfp+0xf4>
 80015fc:	1025883a 	mov	r18,r2
 8001600:	003fee06 	br	80015bc <__alt_data_end+0xfc0015bc>
 8001604:	00bfffc4 	movi	r2,-1
 8001608:	8080038d 	sth	r2,14(r16)
 800160c:	00800044 	movi	r2,1
 8001610:	8080030d 	sth	r2,12(r16)
 8001614:	80001915 	stw	zero,100(r16)
 8001618:	80000015 	stw	zero,0(r16)
 800161c:	80000215 	stw	zero,8(r16)
 8001620:	80000115 	stw	zero,4(r16)
 8001624:	80000415 	stw	zero,16(r16)
 8001628:	80000515 	stw	zero,20(r16)
 800162c:	80000615 	stw	zero,24(r16)
 8001630:	81001704 	addi	r4,r16,92
 8001634:	000b883a 	mov	r5,zero
 8001638:	01800204 	movi	r6,8
 800163c:	8002de00 	call	8002de0 <memset>
 8001640:	8005883a 	mov	r2,r16
 8001644:	80000c15 	stw	zero,48(r16)
 8001648:	80000d15 	stw	zero,52(r16)
 800164c:	80001115 	stw	zero,68(r16)
 8001650:	80001215 	stw	zero,72(r16)
 8001654:	dfc00417 	ldw	ra,16(sp)
 8001658:	dcc00317 	ldw	r19,12(sp)
 800165c:	dc800217 	ldw	r18,8(sp)
 8001660:	dc400117 	ldw	r17,4(sp)
 8001664:	dc000017 	ldw	r16,0(sp)
 8001668:	dec00504 	addi	sp,sp,20
 800166c:	f800283a 	ret
 8001670:	9809883a 	mov	r4,r19
 8001674:	01400104 	movi	r5,4
 8001678:	80015040 	call	8001504 <__sfmoreglue>
 800167c:	90800015 	stw	r2,0(r18)
 8001680:	103fde1e 	bne	r2,zero,80015fc <__alt_data_end+0xfc0015fc>
 8001684:	00800304 	movi	r2,12
 8001688:	98800015 	stw	r2,0(r19)
 800168c:	0005883a 	mov	r2,zero
 8001690:	003ff006 	br	8001654 <__alt_data_end+0xfc001654>

08001694 <_cleanup>:
 8001694:	00820074 	movhi	r2,2049
 8001698:	108f3104 	addi	r2,r2,15556
 800169c:	11000017 	ldw	r4,0(r2)
 80016a0:	01420034 	movhi	r5,2048
 80016a4:	29443704 	addi	r5,r5,4316
 80016a8:	80020ec1 	jmpi	80020ec <_fwalk>

080016ac <__sinit>:
 80016ac:	20800e17 	ldw	r2,56(r4)
 80016b0:	10000126 	beq	r2,zero,80016b8 <__sinit+0xc>
 80016b4:	f800283a 	ret
 80016b8:	80013641 	jmpi	8001364 <__sinit.part.1>

080016bc <__sfp_lock_acquire>:
 80016bc:	f800283a 	ret

080016c0 <__sfp_lock_release>:
 80016c0:	f800283a 	ret

080016c4 <__sinit_lock_acquire>:
 80016c4:	f800283a 	ret

080016c8 <__sinit_lock_release>:
 80016c8:	f800283a 	ret

080016cc <__fp_lock_all>:
 80016cc:	00820074 	movhi	r2,2049
 80016d0:	108f3204 	addi	r2,r2,15560
 80016d4:	11000017 	ldw	r4,0(r2)
 80016d8:	01420034 	movhi	r5,2048
 80016dc:	2944d204 	addi	r5,r5,4936
 80016e0:	80020ec1 	jmpi	80020ec <_fwalk>

080016e4 <__fp_unlock_all>:
 80016e4:	00820074 	movhi	r2,2049
 80016e8:	108f3204 	addi	r2,r2,15560
 80016ec:	11000017 	ldw	r4,0(r2)
 80016f0:	01420034 	movhi	r5,2048
 80016f4:	2944d404 	addi	r5,r5,4944
 80016f8:	80020ec1 	jmpi	80020ec <_fwalk>

080016fc <_fopen_r>:
 80016fc:	defffa04 	addi	sp,sp,-24
 8001700:	dcc00415 	stw	r19,16(sp)
 8001704:	2827883a 	mov	r19,r5
 8001708:	300b883a 	mov	r5,r6
 800170c:	d80d883a 	mov	r6,sp
 8001710:	dc800315 	stw	r18,12(sp)
 8001714:	dc400215 	stw	r17,8(sp)
 8001718:	dfc00515 	stw	ra,20(sp)
 800171c:	dc000115 	stw	r16,4(sp)
 8001720:	2025883a 	mov	r18,r4
 8001724:	80074a40 	call	80074a4 <__sflags>
 8001728:	1023883a 	mov	r17,r2
 800172c:	10002626 	beq	r2,zero,80017c8 <_fopen_r+0xcc>
 8001730:	9009883a 	mov	r4,r18
 8001734:	800157c0 	call	800157c <__sfp>
 8001738:	1021883a 	mov	r16,r2
 800173c:	10002226 	beq	r2,zero,80017c8 <_fopen_r+0xcc>
 8001740:	d9800017 	ldw	r6,0(sp)
 8001744:	9009883a 	mov	r4,r18
 8001748:	980b883a 	mov	r5,r19
 800174c:	01c06d84 	movi	r7,438
 8001750:	8002f040 	call	8002f04 <_open_r>
 8001754:	10001916 	blt	r2,zero,80017bc <_fopen_r+0xc0>
 8001758:	8080038d 	sth	r2,14(r16)
 800175c:	00820034 	movhi	r2,2048
 8001760:	108ccd04 	addi	r2,r2,13108
 8001764:	80800815 	stw	r2,32(r16)
 8001768:	00820034 	movhi	r2,2048
 800176c:	108ce404 	addi	r2,r2,13200
 8001770:	80800915 	stw	r2,36(r16)
 8001774:	00820034 	movhi	r2,2048
 8001778:	108d0304 	addi	r2,r2,13324
 800177c:	80800a15 	stw	r2,40(r16)
 8001780:	00820034 	movhi	r2,2048
 8001784:	108d1a04 	addi	r2,r2,13416
 8001788:	8440030d 	sth	r17,12(r16)
 800178c:	84000715 	stw	r16,28(r16)
 8001790:	80800b15 	stw	r2,44(r16)
 8001794:	8c40400c 	andi	r17,r17,256
 8001798:	88000d1e 	bne	r17,zero,80017d0 <_fopen_r+0xd4>
 800179c:	8005883a 	mov	r2,r16
 80017a0:	dfc00517 	ldw	ra,20(sp)
 80017a4:	dcc00417 	ldw	r19,16(sp)
 80017a8:	dc800317 	ldw	r18,12(sp)
 80017ac:	dc400217 	ldw	r17,8(sp)
 80017b0:	dc000117 	ldw	r16,4(sp)
 80017b4:	dec00604 	addi	sp,sp,24
 80017b8:	f800283a 	ret
 80017bc:	80016bc0 	call	80016bc <__sfp_lock_acquire>
 80017c0:	8000030d 	sth	zero,12(r16)
 80017c4:	80016c00 	call	80016c0 <__sfp_lock_release>
 80017c8:	0005883a 	mov	r2,zero
 80017cc:	003ff406 	br	80017a0 <__alt_data_end+0xfc0017a0>
 80017d0:	9009883a 	mov	r4,r18
 80017d4:	800b883a 	mov	r5,r16
 80017d8:	000d883a 	mov	r6,zero
 80017dc:	01c00084 	movi	r7,2
 80017e0:	8001c1c0 	call	8001c1c <_fseek_r>
 80017e4:	8005883a 	mov	r2,r16
 80017e8:	003fed06 	br	80017a0 <__alt_data_end+0xfc0017a0>

080017ec <fopen>:
 80017ec:	00c20074 	movhi	r3,2049
 80017f0:	18cf3204 	addi	r3,r3,15560
 80017f4:	2005883a 	mov	r2,r4
 80017f8:	19000017 	ldw	r4,0(r3)
 80017fc:	280d883a 	mov	r6,r5
 8001800:	100b883a 	mov	r5,r2
 8001804:	80016fc1 	jmpi	80016fc <_fopen_r>

08001808 <_malloc_trim_r>:
 8001808:	defffb04 	addi	sp,sp,-20
 800180c:	dcc00315 	stw	r19,12(sp)
 8001810:	04c20074 	movhi	r19,2049
 8001814:	dc800215 	stw	r18,8(sp)
 8001818:	dc400115 	stw	r17,4(sp)
 800181c:	dc000015 	stw	r16,0(sp)
 8001820:	dfc00415 	stw	ra,16(sp)
 8001824:	2821883a 	mov	r16,r5
 8001828:	9cc95e04 	addi	r19,r19,9592
 800182c:	2025883a 	mov	r18,r4
 8001830:	800ed540 	call	800ed54 <__malloc_lock>
 8001834:	98800217 	ldw	r2,8(r19)
 8001838:	14400117 	ldw	r17,4(r2)
 800183c:	00bfff04 	movi	r2,-4
 8001840:	88a2703a 	and	r17,r17,r2
 8001844:	8c21c83a 	sub	r16,r17,r16
 8001848:	8403fbc4 	addi	r16,r16,4079
 800184c:	8020d33a 	srli	r16,r16,12
 8001850:	0083ffc4 	movi	r2,4095
 8001854:	843fffc4 	addi	r16,r16,-1
 8001858:	8020933a 	slli	r16,r16,12
 800185c:	1400060e 	bge	r2,r16,8001878 <_malloc_trim_r+0x70>
 8001860:	9009883a 	mov	r4,r18
 8001864:	000b883a 	mov	r5,zero
 8001868:	80032e00 	call	80032e0 <_sbrk_r>
 800186c:	98c00217 	ldw	r3,8(r19)
 8001870:	1c47883a 	add	r3,r3,r17
 8001874:	10c00a26 	beq	r2,r3,80018a0 <_malloc_trim_r+0x98>
 8001878:	9009883a 	mov	r4,r18
 800187c:	800ed740 	call	800ed74 <__malloc_unlock>
 8001880:	0005883a 	mov	r2,zero
 8001884:	dfc00417 	ldw	ra,16(sp)
 8001888:	dcc00317 	ldw	r19,12(sp)
 800188c:	dc800217 	ldw	r18,8(sp)
 8001890:	dc400117 	ldw	r17,4(sp)
 8001894:	dc000017 	ldw	r16,0(sp)
 8001898:	dec00504 	addi	sp,sp,20
 800189c:	f800283a 	ret
 80018a0:	9009883a 	mov	r4,r18
 80018a4:	040bc83a 	sub	r5,zero,r16
 80018a8:	80032e00 	call	80032e0 <_sbrk_r>
 80018ac:	00ffffc4 	movi	r3,-1
 80018b0:	10c00d26 	beq	r2,r3,80018e8 <_malloc_trim_r+0xe0>
 80018b4:	00c20074 	movhi	r3,2049
 80018b8:	18d63c04 	addi	r3,r3,22768
 80018bc:	18800017 	ldw	r2,0(r3)
 80018c0:	99000217 	ldw	r4,8(r19)
 80018c4:	8c23c83a 	sub	r17,r17,r16
 80018c8:	8c400054 	ori	r17,r17,1
 80018cc:	1421c83a 	sub	r16,r2,r16
 80018d0:	24400115 	stw	r17,4(r4)
 80018d4:	9009883a 	mov	r4,r18
 80018d8:	1c000015 	stw	r16,0(r3)
 80018dc:	800ed740 	call	800ed74 <__malloc_unlock>
 80018e0:	00800044 	movi	r2,1
 80018e4:	003fe706 	br	8001884 <__alt_data_end+0xfc001884>
 80018e8:	9009883a 	mov	r4,r18
 80018ec:	000b883a 	mov	r5,zero
 80018f0:	80032e00 	call	80032e0 <_sbrk_r>
 80018f4:	99000217 	ldw	r4,8(r19)
 80018f8:	014003c4 	movi	r5,15
 80018fc:	1107c83a 	sub	r3,r2,r4
 8001900:	28ffdd0e 	bge	r5,r3,8001878 <__alt_data_end+0xfc001878>
 8001904:	01420074 	movhi	r5,2049
 8001908:	294f3304 	addi	r5,r5,15564
 800190c:	29400017 	ldw	r5,0(r5)
 8001910:	18c00054 	ori	r3,r3,1
 8001914:	20c00115 	stw	r3,4(r4)
 8001918:	00c20074 	movhi	r3,2049
 800191c:	1145c83a 	sub	r2,r2,r5
 8001920:	18d63c04 	addi	r3,r3,22768
 8001924:	18800015 	stw	r2,0(r3)
 8001928:	003fd306 	br	8001878 <__alt_data_end+0xfc001878>

0800192c <_free_r>:
 800192c:	28004c26 	beq	r5,zero,8001a60 <_free_r+0x134>
 8001930:	defffd04 	addi	sp,sp,-12
 8001934:	dc400115 	stw	r17,4(sp)
 8001938:	dc000015 	stw	r16,0(sp)
 800193c:	2023883a 	mov	r17,r4
 8001940:	2821883a 	mov	r16,r5
 8001944:	dfc00215 	stw	ra,8(sp)
 8001948:	800ed540 	call	800ed54 <__malloc_lock>
 800194c:	813fff17 	ldw	r4,-4(r16)
 8001950:	00bfff84 	movi	r2,-2
 8001954:	02420074 	movhi	r9,2049
 8001958:	81bffe04 	addi	r6,r16,-8
 800195c:	2084703a 	and	r2,r4,r2
 8001960:	4a495e04 	addi	r9,r9,9592
 8001964:	308b883a 	add	r5,r6,r2
 8001968:	2a000117 	ldw	r8,4(r5)
 800196c:	49c00217 	ldw	r7,8(r9)
 8001970:	00ffff04 	movi	r3,-4
 8001974:	40c6703a 	and	r3,r8,r3
 8001978:	39405326 	beq	r7,r5,8001ac8 <_free_r+0x19c>
 800197c:	28c00115 	stw	r3,4(r5)
 8001980:	2100004c 	andi	r4,r4,1
 8001984:	2000091e 	bne	r4,zero,80019ac <_free_r+0x80>
 8001988:	81fffe17 	ldw	r7,-8(r16)
 800198c:	4a000204 	addi	r8,r9,8
 8001990:	31cdc83a 	sub	r6,r6,r7
 8001994:	31000217 	ldw	r4,8(r6)
 8001998:	11c5883a 	add	r2,r2,r7
 800199c:	22006126 	beq	r4,r8,8001b24 <_free_r+0x1f8>
 80019a0:	31c00317 	ldw	r7,12(r6)
 80019a4:	21c00315 	stw	r7,12(r4)
 80019a8:	39000215 	stw	r4,8(r7)
 80019ac:	28c9883a 	add	r4,r5,r3
 80019b0:	21c00117 	ldw	r7,4(r4)
 80019b4:	39c0004c 	andi	r7,r7,1
 80019b8:	38000d1e 	bne	r7,zero,80019f0 <_free_r+0xc4>
 80019bc:	29000217 	ldw	r4,8(r5)
 80019c0:	10c5883a 	add	r2,r2,r3
 80019c4:	00c20074 	movhi	r3,2049
 80019c8:	18c96004 	addi	r3,r3,9600
 80019cc:	20c07526 	beq	r4,r3,8001ba4 <_free_r+0x278>
 80019d0:	29c00317 	ldw	r7,12(r5)
 80019d4:	11400054 	ori	r5,r2,1
 80019d8:	3087883a 	add	r3,r6,r2
 80019dc:	21c00315 	stw	r7,12(r4)
 80019e0:	39000215 	stw	r4,8(r7)
 80019e4:	31400115 	stw	r5,4(r6)
 80019e8:	18800015 	stw	r2,0(r3)
 80019ec:	00000406 	br	8001a00 <_free_r+0xd4>
 80019f0:	10c00054 	ori	r3,r2,1
 80019f4:	30c00115 	stw	r3,4(r6)
 80019f8:	3087883a 	add	r3,r6,r2
 80019fc:	18800015 	stw	r2,0(r3)
 8001a00:	00c07fc4 	movi	r3,511
 8001a04:	18801736 	bltu	r3,r2,8001a64 <_free_r+0x138>
 8001a08:	1004d0fa 	srli	r2,r2,3
 8001a0c:	01400044 	movi	r5,1
 8001a10:	49000117 	ldw	r4,4(r9)
 8001a14:	1087883a 	add	r3,r2,r2
 8001a18:	18c7883a 	add	r3,r3,r3
 8001a1c:	1005d0ba 	srai	r2,r2,2
 8001a20:	18c7883a 	add	r3,r3,r3
 8001a24:	1a47883a 	add	r3,r3,r9
 8001a28:	19c00217 	ldw	r7,8(r3)
 8001a2c:	2884983a 	sll	r2,r5,r2
 8001a30:	30c00315 	stw	r3,12(r6)
 8001a34:	31c00215 	stw	r7,8(r6)
 8001a38:	1104b03a 	or	r2,r2,r4
 8001a3c:	19800215 	stw	r6,8(r3)
 8001a40:	48800115 	stw	r2,4(r9)
 8001a44:	39800315 	stw	r6,12(r7)
 8001a48:	8809883a 	mov	r4,r17
 8001a4c:	dfc00217 	ldw	ra,8(sp)
 8001a50:	dc400117 	ldw	r17,4(sp)
 8001a54:	dc000017 	ldw	r16,0(sp)
 8001a58:	dec00304 	addi	sp,sp,12
 8001a5c:	800ed741 	jmpi	800ed74 <__malloc_unlock>
 8001a60:	f800283a 	ret
 8001a64:	1006d27a 	srli	r3,r2,9
 8001a68:	01000104 	movi	r4,4
 8001a6c:	20c04036 	bltu	r4,r3,8001b70 <_free_r+0x244>
 8001a70:	1006d1ba 	srli	r3,r2,6
 8001a74:	19400e04 	addi	r5,r3,56
 8001a78:	2947883a 	add	r3,r5,r5
 8001a7c:	18c7883a 	add	r3,r3,r3
 8001a80:	18c7883a 	add	r3,r3,r3
 8001a84:	1a49883a 	add	r4,r3,r9
 8001a88:	20c00217 	ldw	r3,8(r4)
 8001a8c:	01c20074 	movhi	r7,2049
 8001a90:	39c95e04 	addi	r7,r7,9592
 8001a94:	19003b26 	beq	r3,r4,8001b84 <_free_r+0x258>
 8001a98:	01ffff04 	movi	r7,-4
 8001a9c:	19400117 	ldw	r5,4(r3)
 8001aa0:	29ca703a 	and	r5,r5,r7
 8001aa4:	1140022e 	bgeu	r2,r5,8001ab0 <_free_r+0x184>
 8001aa8:	18c00217 	ldw	r3,8(r3)
 8001aac:	20fffb1e 	bne	r4,r3,8001a9c <__alt_data_end+0xfc001a9c>
 8001ab0:	18800317 	ldw	r2,12(r3)
 8001ab4:	30800315 	stw	r2,12(r6)
 8001ab8:	30c00215 	stw	r3,8(r6)
 8001abc:	11800215 	stw	r6,8(r2)
 8001ac0:	19800315 	stw	r6,12(r3)
 8001ac4:	003fe006 	br	8001a48 <__alt_data_end+0xfc001a48>
 8001ac8:	2100004c 	andi	r4,r4,1
 8001acc:	1885883a 	add	r2,r3,r2
 8001ad0:	2000071e 	bne	r4,zero,8001af0 <_free_r+0x1c4>
 8001ad4:	817ffe17 	ldw	r5,-8(r16)
 8001ad8:	314dc83a 	sub	r6,r6,r5
 8001adc:	30c00317 	ldw	r3,12(r6)
 8001ae0:	31000217 	ldw	r4,8(r6)
 8001ae4:	1145883a 	add	r2,r2,r5
 8001ae8:	20c00315 	stw	r3,12(r4)
 8001aec:	19000215 	stw	r4,8(r3)
 8001af0:	10c00054 	ori	r3,r2,1
 8001af4:	30c00115 	stw	r3,4(r6)
 8001af8:	00c20074 	movhi	r3,2049
 8001afc:	18cf3404 	addi	r3,r3,15568
 8001b00:	18c00017 	ldw	r3,0(r3)
 8001b04:	49800215 	stw	r6,8(r9)
 8001b08:	10ffcf36 	bltu	r2,r3,8001a48 <__alt_data_end+0xfc001a48>
 8001b0c:	00820074 	movhi	r2,2049
 8001b10:	10963204 	addi	r2,r2,22728
 8001b14:	11400017 	ldw	r5,0(r2)
 8001b18:	8809883a 	mov	r4,r17
 8001b1c:	80018080 	call	8001808 <_malloc_trim_r>
 8001b20:	003fc906 	br	8001a48 <__alt_data_end+0xfc001a48>
 8001b24:	28c9883a 	add	r4,r5,r3
 8001b28:	21000117 	ldw	r4,4(r4)
 8001b2c:	2100004c 	andi	r4,r4,1
 8001b30:	20000a1e 	bne	r4,zero,8001b5c <_free_r+0x230>
 8001b34:	29000317 	ldw	r4,12(r5)
 8001b38:	29400217 	ldw	r5,8(r5)
 8001b3c:	10c5883a 	add	r2,r2,r3
 8001b40:	10c00054 	ori	r3,r2,1
 8001b44:	29000315 	stw	r4,12(r5)
 8001b48:	21400215 	stw	r5,8(r4)
 8001b4c:	30c00115 	stw	r3,4(r6)
 8001b50:	308d883a 	add	r6,r6,r2
 8001b54:	30800015 	stw	r2,0(r6)
 8001b58:	003fbb06 	br	8001a48 <__alt_data_end+0xfc001a48>
 8001b5c:	10c00054 	ori	r3,r2,1
 8001b60:	30c00115 	stw	r3,4(r6)
 8001b64:	308d883a 	add	r6,r6,r2
 8001b68:	30800015 	stw	r2,0(r6)
 8001b6c:	003fb606 	br	8001a48 <__alt_data_end+0xfc001a48>
 8001b70:	01000504 	movi	r4,20
 8001b74:	20c01436 	bltu	r4,r3,8001bc8 <_free_r+0x29c>
 8001b78:	194016c4 	addi	r5,r3,91
 8001b7c:	2947883a 	add	r3,r5,r5
 8001b80:	003fbe06 	br	8001a7c <__alt_data_end+0xfc001a7c>
 8001b84:	280bd0ba 	srai	r5,r5,2
 8001b88:	00800044 	movi	r2,1
 8001b8c:	39000117 	ldw	r4,4(r7)
 8001b90:	114a983a 	sll	r5,r2,r5
 8001b94:	1805883a 	mov	r2,r3
 8001b98:	2908b03a 	or	r4,r5,r4
 8001b9c:	39000115 	stw	r4,4(r7)
 8001ba0:	003fc406 	br	8001ab4 <__alt_data_end+0xfc001ab4>
 8001ba4:	49800515 	stw	r6,20(r9)
 8001ba8:	49800415 	stw	r6,16(r9)
 8001bac:	10c00054 	ori	r3,r2,1
 8001bb0:	31000315 	stw	r4,12(r6)
 8001bb4:	31000215 	stw	r4,8(r6)
 8001bb8:	30c00115 	stw	r3,4(r6)
 8001bbc:	308d883a 	add	r6,r6,r2
 8001bc0:	30800015 	stw	r2,0(r6)
 8001bc4:	003fa006 	br	8001a48 <__alt_data_end+0xfc001a48>
 8001bc8:	01001504 	movi	r4,84
 8001bcc:	20c00436 	bltu	r4,r3,8001be0 <_free_r+0x2b4>
 8001bd0:	1006d33a 	srli	r3,r2,12
 8001bd4:	19401b84 	addi	r5,r3,110
 8001bd8:	2947883a 	add	r3,r5,r5
 8001bdc:	003fa706 	br	8001a7c <__alt_data_end+0xfc001a7c>
 8001be0:	01005504 	movi	r4,340
 8001be4:	20c00436 	bltu	r4,r3,8001bf8 <_free_r+0x2cc>
 8001be8:	1006d3fa 	srli	r3,r2,15
 8001bec:	19401dc4 	addi	r5,r3,119
 8001bf0:	2947883a 	add	r3,r5,r5
 8001bf4:	003fa106 	br	8001a7c <__alt_data_end+0xfc001a7c>
 8001bf8:	01015504 	movi	r4,1364
 8001bfc:	20c00436 	bltu	r4,r3,8001c10 <_free_r+0x2e4>
 8001c00:	1006d4ba 	srli	r3,r2,18
 8001c04:	19401f04 	addi	r5,r3,124
 8001c08:	2947883a 	add	r3,r5,r5
 8001c0c:	003f9b06 	br	8001a7c <__alt_data_end+0xfc001a7c>
 8001c10:	00c03f04 	movi	r3,252
 8001c14:	01401f84 	movi	r5,126
 8001c18:	003f9806 	br	8001a7c <__alt_data_end+0xfc001a7c>

08001c1c <_fseek_r>:
 8001c1c:	deffe804 	addi	sp,sp,-96
 8001c20:	dd401415 	stw	r21,80(sp)
 8001c24:	dc801115 	stw	r18,68(sp)
 8001c28:	dc401015 	stw	r17,64(sp)
 8001c2c:	dc000f15 	stw	r16,60(sp)
 8001c30:	dfc01715 	stw	ra,92(sp)
 8001c34:	ddc01615 	stw	r23,88(sp)
 8001c38:	dd801515 	stw	r22,84(sp)
 8001c3c:	dd001315 	stw	r20,76(sp)
 8001c40:	dcc01215 	stw	r19,72(sp)
 8001c44:	2023883a 	mov	r17,r4
 8001c48:	2821883a 	mov	r16,r5
 8001c4c:	302b883a 	mov	r21,r6
 8001c50:	3825883a 	mov	r18,r7
 8001c54:	20000226 	beq	r4,zero,8001c60 <_fseek_r+0x44>
 8001c58:	20800e17 	ldw	r2,56(r4)
 8001c5c:	10005d26 	beq	r2,zero,8001dd4 <_fseek_r+0x1b8>
 8001c60:	80016bc0 	call	80016bc <__sfp_lock_acquire>
 8001c64:	8080030b 	ldhu	r2,12(r16)
 8001c68:	00c04204 	movi	r3,264
 8001c6c:	1080420c 	andi	r2,r2,264
 8001c70:	10c0a026 	beq	r2,r3,8001ef4 <_fseek_r+0x2d8>
 8001c74:	85000a17 	ldw	r20,40(r16)
 8001c78:	a000f826 	beq	r20,zero,800205c <_fseek_r+0x440>
 8001c7c:	00800044 	movi	r2,1
 8001c80:	90804026 	beq	r18,r2,8001d84 <_fseek_r+0x168>
 8001c84:	00800084 	movi	r2,2
 8001c88:	90801126 	beq	r18,r2,8001cd0 <_fseek_r+0xb4>
 8001c8c:	90001026 	beq	r18,zero,8001cd0 <_fseek_r+0xb4>
 8001c90:	00800584 	movi	r2,22
 8001c94:	88800015 	stw	r2,0(r17)
 8001c98:	80016c00 	call	80016c0 <__sfp_lock_release>
 8001c9c:	04ffffc4 	movi	r19,-1
 8001ca0:	9805883a 	mov	r2,r19
 8001ca4:	dfc01717 	ldw	ra,92(sp)
 8001ca8:	ddc01617 	ldw	r23,88(sp)
 8001cac:	dd801517 	ldw	r22,84(sp)
 8001cb0:	dd401417 	ldw	r21,80(sp)
 8001cb4:	dd001317 	ldw	r20,76(sp)
 8001cb8:	dcc01217 	ldw	r19,72(sp)
 8001cbc:	dc801117 	ldw	r18,68(sp)
 8001cc0:	dc401017 	ldw	r17,64(sp)
 8001cc4:	dc000f17 	ldw	r16,60(sp)
 8001cc8:	dec01804 	addi	sp,sp,96
 8001ccc:	f800283a 	ret
 8001cd0:	80800417 	ldw	r2,16(r16)
 8001cd4:	002f883a 	mov	r23,zero
 8001cd8:	0027883a 	mov	r19,zero
 8001cdc:	1000c026 	beq	r2,zero,8001fe0 <_fseek_r+0x3c4>
 8001ce0:	8080030b 	ldhu	r2,12(r16)
 8001ce4:	10c2068c 	andi	r3,r2,2074
 8001ce8:	1800071e 	bne	r3,zero,8001d08 <_fseek_r+0xec>
 8001cec:	10c1000c 	andi	r3,r2,1024
 8001cf0:	18003f1e 	bne	r3,zero,8001df0 <_fseek_r+0x1d4>
 8001cf4:	00c20034 	movhi	r3,2048
 8001cf8:	18cd0304 	addi	r3,r3,13324
 8001cfc:	a0c0bc26 	beq	r20,r3,8001ff0 <_fseek_r+0x3d4>
 8001d00:	10820014 	ori	r2,r2,2048
 8001d04:	8080030d 	sth	r2,12(r16)
 8001d08:	8809883a 	mov	r4,r17
 8001d0c:	800b883a 	mov	r5,r16
 8001d10:	80010f00 	call	80010f0 <_fflush_r>
 8001d14:	1027883a 	mov	r19,r2
 8001d18:	103fdf1e 	bne	r2,zero,8001c98 <__alt_data_end+0xfc001c98>
 8001d1c:	81400717 	ldw	r5,28(r16)
 8001d20:	8809883a 	mov	r4,r17
 8001d24:	a80d883a 	mov	r6,r21
 8001d28:	900f883a 	mov	r7,r18
 8001d2c:	a03ee83a 	callr	r20
 8001d30:	00ffffc4 	movi	r3,-1
 8001d34:	10ffd826 	beq	r2,r3,8001c98 <__alt_data_end+0xfc001c98>
 8001d38:	81400c17 	ldw	r5,48(r16)
 8001d3c:	28000526 	beq	r5,zero,8001d54 <_fseek_r+0x138>
 8001d40:	80801004 	addi	r2,r16,64
 8001d44:	28800226 	beq	r5,r2,8001d50 <_fseek_r+0x134>
 8001d48:	8809883a 	mov	r4,r17
 8001d4c:	800192c0 	call	800192c <_free_r>
 8001d50:	80000c15 	stw	zero,48(r16)
 8001d54:	8080030b 	ldhu	r2,12(r16)
 8001d58:	80c00417 	ldw	r3,16(r16)
 8001d5c:	81001704 	addi	r4,r16,92
 8001d60:	10bdf7cc 	andi	r2,r2,63455
 8001d64:	000b883a 	mov	r5,zero
 8001d68:	01800204 	movi	r6,8
 8001d6c:	80c00015 	stw	r3,0(r16)
 8001d70:	80000115 	stw	zero,4(r16)
 8001d74:	8080030d 	sth	r2,12(r16)
 8001d78:	8002de00 	call	8002de0 <memset>
 8001d7c:	80016c00 	call	80016c0 <__sfp_lock_release>
 8001d80:	003fc706 	br	8001ca0 <__alt_data_end+0xfc001ca0>
 8001d84:	8809883a 	mov	r4,r17
 8001d88:	800b883a 	mov	r5,r16
 8001d8c:	80010f00 	call	80010f0 <_fflush_r>
 8001d90:	8080030b 	ldhu	r2,12(r16)
 8001d94:	10c4000c 	andi	r3,r2,4096
 8001d98:	18008726 	beq	r3,zero,8001fb8 <_fseek_r+0x39c>
 8001d9c:	84c01417 	ldw	r19,80(r16)
 8001da0:	10c0010c 	andi	r3,r2,4
 8001da4:	18003e1e 	bne	r3,zero,8001ea0 <_fseek_r+0x284>
 8001da8:	1080020c 	andi	r2,r2,8
 8001dac:	10008026 	beq	r2,zero,8001fb0 <_fseek_r+0x394>
 8001db0:	80c00017 	ldw	r3,0(r16)
 8001db4:	80800417 	ldw	r2,16(r16)
 8001db8:	18000226 	beq	r3,zero,8001dc4 <_fseek_r+0x1a8>
 8001dbc:	1887c83a 	sub	r3,r3,r2
 8001dc0:	98e7883a 	add	r19,r19,r3
 8001dc4:	aceb883a 	add	r21,r21,r19
 8001dc8:	05c00044 	movi	r23,1
 8001dcc:	0025883a 	mov	r18,zero
 8001dd0:	003fc206 	br	8001cdc <__alt_data_end+0xfc001cdc>
 8001dd4:	80016ac0 	call	80016ac <__sinit>
 8001dd8:	003fa106 	br	8001c60 <__alt_data_end+0xfc001c60>
 8001ddc:	8080030b 	ldhu	r2,12(r16)
 8001de0:	00c10004 	movi	r3,1024
 8001de4:	80c01315 	stw	r3,76(r16)
 8001de8:	10c4b03a 	or	r2,r2,r3
 8001dec:	8080030d 	sth	r2,12(r16)
 8001df0:	9000331e 	bne	r18,zero,8001ec0 <_fseek_r+0x2a4>
 8001df4:	a82d883a 	mov	r22,r21
 8001df8:	b800391e 	bne	r23,zero,8001ee0 <_fseek_r+0x2c4>
 8001dfc:	8080030b 	ldhu	r2,12(r16)
 8001e00:	1084000c 	andi	r2,r2,4096
 8001e04:	10008626 	beq	r2,zero,8002020 <_fseek_r+0x404>
 8001e08:	80801417 	ldw	r2,80(r16)
 8001e0c:	81800117 	ldw	r6,4(r16)
 8001e10:	81400c17 	ldw	r5,48(r16)
 8001e14:	11a7c83a 	sub	r19,r2,r6
 8001e18:	28008926 	beq	r5,zero,8002040 <_fseek_r+0x424>
 8001e1c:	80800f17 	ldw	r2,60(r16)
 8001e20:	98a7c83a 	sub	r19,r19,r2
 8001e24:	81000e17 	ldw	r4,56(r16)
 8001e28:	80c00417 	ldw	r3,16(r16)
 8001e2c:	99a7883a 	add	r19,r19,r6
 8001e30:	20c7c83a 	sub	r3,r4,r3
 8001e34:	98e7c83a 	sub	r19,r19,r3
 8001e38:	10c7883a 	add	r3,r2,r3
 8001e3c:	b4c03116 	blt	r22,r19,8001f04 <_fseek_r+0x2e8>
 8001e40:	98c5883a 	add	r2,r19,r3
 8001e44:	b0802f2e 	bgeu	r22,r2,8001f04 <_fseek_r+0x2e8>
 8001e48:	80800417 	ldw	r2,16(r16)
 8001e4c:	b4e7c83a 	sub	r19,r22,r19
 8001e50:	1cc7c83a 	sub	r3,r3,r19
 8001e54:	14e7883a 	add	r19,r2,r19
 8001e58:	84c00015 	stw	r19,0(r16)
 8001e5c:	80c00115 	stw	r3,4(r16)
 8001e60:	28000526 	beq	r5,zero,8001e78 <_fseek_r+0x25c>
 8001e64:	80801004 	addi	r2,r16,64
 8001e68:	28800226 	beq	r5,r2,8001e74 <_fseek_r+0x258>
 8001e6c:	8809883a 	mov	r4,r17
 8001e70:	800192c0 	call	800192c <_free_r>
 8001e74:	80000c15 	stw	zero,48(r16)
 8001e78:	8080030b 	ldhu	r2,12(r16)
 8001e7c:	81001704 	addi	r4,r16,92
 8001e80:	000b883a 	mov	r5,zero
 8001e84:	10bff7cc 	andi	r2,r2,65503
 8001e88:	01800204 	movi	r6,8
 8001e8c:	8080030d 	sth	r2,12(r16)
 8001e90:	8002de00 	call	8002de0 <memset>
 8001e94:	80016c00 	call	80016c0 <__sfp_lock_release>
 8001e98:	0027883a 	mov	r19,zero
 8001e9c:	003f8006 	br	8001ca0 <__alt_data_end+0xfc001ca0>
 8001ea0:	80c00117 	ldw	r3,4(r16)
 8001ea4:	80800c17 	ldw	r2,48(r16)
 8001ea8:	98e7c83a 	sub	r19,r19,r3
 8001eac:	10004026 	beq	r2,zero,8001fb0 <_fseek_r+0x394>
 8001eb0:	80c00f17 	ldw	r3,60(r16)
 8001eb4:	80800417 	ldw	r2,16(r16)
 8001eb8:	98e7c83a 	sub	r19,r19,r3
 8001ebc:	003fc106 	br	8001dc4 <__alt_data_end+0xfc001dc4>
 8001ec0:	8140038f 	ldh	r5,14(r16)
 8001ec4:	8809883a 	mov	r4,r17
 8001ec8:	d80d883a 	mov	r6,sp
 8001ecc:	80020940 	call	8002094 <_fstat_r>
 8001ed0:	103f8d1e 	bne	r2,zero,8001d08 <__alt_data_end+0xfc001d08>
 8001ed4:	dd800417 	ldw	r22,16(sp)
 8001ed8:	adad883a 	add	r22,r21,r22
 8001edc:	b83fc726 	beq	r23,zero,8001dfc <__alt_data_end+0xfc001dfc>
 8001ee0:	81400c17 	ldw	r5,48(r16)
 8001ee4:	81800117 	ldw	r6,4(r16)
 8001ee8:	28005526 	beq	r5,zero,8002040 <_fseek_r+0x424>
 8001eec:	80800f17 	ldw	r2,60(r16)
 8001ef0:	003fcc06 	br	8001e24 <__alt_data_end+0xfc001e24>
 8001ef4:	8809883a 	mov	r4,r17
 8001ef8:	800b883a 	mov	r5,r16
 8001efc:	80010f00 	call	80010f0 <_fflush_r>
 8001f00:	003f5c06 	br	8001c74 <__alt_data_end+0xfc001c74>
 8001f04:	84c01317 	ldw	r19,76(r16)
 8001f08:	81400717 	ldw	r5,28(r16)
 8001f0c:	8809883a 	mov	r4,r17
 8001f10:	04e7c83a 	sub	r19,zero,r19
 8001f14:	b4e6703a 	and	r19,r22,r19
 8001f18:	980d883a 	mov	r6,r19
 8001f1c:	000f883a 	mov	r7,zero
 8001f20:	a03ee83a 	callr	r20
 8001f24:	00ffffc4 	movi	r3,-1
 8001f28:	10ff7726 	beq	r2,r3,8001d08 <__alt_data_end+0xfc001d08>
 8001f2c:	80800417 	ldw	r2,16(r16)
 8001f30:	81400c17 	ldw	r5,48(r16)
 8001f34:	80000115 	stw	zero,4(r16)
 8001f38:	80800015 	stw	r2,0(r16)
 8001f3c:	28000526 	beq	r5,zero,8001f54 <_fseek_r+0x338>
 8001f40:	80801004 	addi	r2,r16,64
 8001f44:	28800226 	beq	r5,r2,8001f50 <_fseek_r+0x334>
 8001f48:	8809883a 	mov	r4,r17
 8001f4c:	800192c0 	call	800192c <_free_r>
 8001f50:	80000c15 	stw	zero,48(r16)
 8001f54:	8080030b 	ldhu	r2,12(r16)
 8001f58:	b4e7c83a 	sub	r19,r22,r19
 8001f5c:	10bff7cc 	andi	r2,r2,65503
 8001f60:	8080030d 	sth	r2,12(r16)
 8001f64:	98000b26 	beq	r19,zero,8001f94 <_fseek_r+0x378>
 8001f68:	8809883a 	mov	r4,r17
 8001f6c:	800b883a 	mov	r5,r16
 8001f70:	80030b00 	call	80030b0 <__srefill_r>
 8001f74:	103f641e 	bne	r2,zero,8001d08 <__alt_data_end+0xfc001d08>
 8001f78:	80800117 	ldw	r2,4(r16)
 8001f7c:	14ff6236 	bltu	r2,r19,8001d08 <__alt_data_end+0xfc001d08>
 8001f80:	80c00017 	ldw	r3,0(r16)
 8001f84:	14c5c83a 	sub	r2,r2,r19
 8001f88:	80800115 	stw	r2,4(r16)
 8001f8c:	1ce7883a 	add	r19,r3,r19
 8001f90:	84c00015 	stw	r19,0(r16)
 8001f94:	81001704 	addi	r4,r16,92
 8001f98:	000b883a 	mov	r5,zero
 8001f9c:	01800204 	movi	r6,8
 8001fa0:	8002de00 	call	8002de0 <memset>
 8001fa4:	80016c00 	call	80016c0 <__sfp_lock_release>
 8001fa8:	0027883a 	mov	r19,zero
 8001fac:	003f3c06 	br	8001ca0 <__alt_data_end+0xfc001ca0>
 8001fb0:	80800417 	ldw	r2,16(r16)
 8001fb4:	003f8306 	br	8001dc4 <__alt_data_end+0xfc001dc4>
 8001fb8:	81400717 	ldw	r5,28(r16)
 8001fbc:	8809883a 	mov	r4,r17
 8001fc0:	000d883a 	mov	r6,zero
 8001fc4:	900f883a 	mov	r7,r18
 8001fc8:	a03ee83a 	callr	r20
 8001fcc:	1027883a 	mov	r19,r2
 8001fd0:	00bfffc4 	movi	r2,-1
 8001fd4:	98bf3026 	beq	r19,r2,8001c98 <__alt_data_end+0xfc001c98>
 8001fd8:	8080030b 	ldhu	r2,12(r16)
 8001fdc:	003f7006 	br	8001da0 <__alt_data_end+0xfc001da0>
 8001fe0:	8809883a 	mov	r4,r17
 8001fe4:	800b883a 	mov	r5,r16
 8001fe8:	80024800 	call	8002480 <__smakebuf_r>
 8001fec:	003f3c06 	br	8001ce0 <__alt_data_end+0xfc001ce0>
 8001ff0:	8140038f 	ldh	r5,14(r16)
 8001ff4:	283f4216 	blt	r5,zero,8001d00 <__alt_data_end+0xfc001d00>
 8001ff8:	8809883a 	mov	r4,r17
 8001ffc:	d80d883a 	mov	r6,sp
 8002000:	80020940 	call	8002094 <_fstat_r>
 8002004:	1000041e 	bne	r2,zero,8002018 <_fseek_r+0x3fc>
 8002008:	d8800117 	ldw	r2,4(sp)
 800200c:	00e00014 	movui	r3,32768
 8002010:	10bc000c 	andi	r2,r2,61440
 8002014:	10ff7126 	beq	r2,r3,8001ddc <__alt_data_end+0xfc001ddc>
 8002018:	8080030b 	ldhu	r2,12(r16)
 800201c:	003f3806 	br	8001d00 <__alt_data_end+0xfc001d00>
 8002020:	81400717 	ldw	r5,28(r16)
 8002024:	8809883a 	mov	r4,r17
 8002028:	000d883a 	mov	r6,zero
 800202c:	01c00044 	movi	r7,1
 8002030:	a03ee83a 	callr	r20
 8002034:	00ffffc4 	movi	r3,-1
 8002038:	10ff741e 	bne	r2,r3,8001e0c <__alt_data_end+0xfc001e0c>
 800203c:	003f3206 	br	8001d08 <__alt_data_end+0xfc001d08>
 8002040:	81000017 	ldw	r4,0(r16)
 8002044:	80c00417 	ldw	r3,16(r16)
 8002048:	000b883a 	mov	r5,zero
 800204c:	20c7c83a 	sub	r3,r4,r3
 8002050:	98e7c83a 	sub	r19,r19,r3
 8002054:	30c7883a 	add	r3,r6,r3
 8002058:	003f7806 	br	8001e3c <__alt_data_end+0xfc001e3c>
 800205c:	00800744 	movi	r2,29
 8002060:	88800015 	stw	r2,0(r17)
 8002064:	80016c00 	call	80016c0 <__sfp_lock_release>
 8002068:	04ffffc4 	movi	r19,-1
 800206c:	003f0c06 	br	8001ca0 <__alt_data_end+0xfc001ca0>

08002070 <fseek>:
 8002070:	2007883a 	mov	r3,r4
 8002074:	01020074 	movhi	r4,2049
 8002078:	210f3204 	addi	r4,r4,15560
 800207c:	21000017 	ldw	r4,0(r4)
 8002080:	2805883a 	mov	r2,r5
 8002084:	300f883a 	mov	r7,r6
 8002088:	180b883a 	mov	r5,r3
 800208c:	100d883a 	mov	r6,r2
 8002090:	8001c1c1 	jmpi	8001c1c <_fseek_r>

08002094 <_fstat_r>:
 8002094:	defffd04 	addi	sp,sp,-12
 8002098:	dc000015 	stw	r16,0(sp)
 800209c:	04020074 	movhi	r16,2049
 80020a0:	dc400115 	stw	r17,4(sp)
 80020a4:	84162f04 	addi	r16,r16,22716
 80020a8:	2023883a 	mov	r17,r4
 80020ac:	2809883a 	mov	r4,r5
 80020b0:	300b883a 	mov	r5,r6
 80020b4:	dfc00215 	stw	ra,8(sp)
 80020b8:	80000015 	stw	zero,0(r16)
 80020bc:	800e9180 	call	800e918 <fstat>
 80020c0:	00ffffc4 	movi	r3,-1
 80020c4:	10c00526 	beq	r2,r3,80020dc <_fstat_r+0x48>
 80020c8:	dfc00217 	ldw	ra,8(sp)
 80020cc:	dc400117 	ldw	r17,4(sp)
 80020d0:	dc000017 	ldw	r16,0(sp)
 80020d4:	dec00304 	addi	sp,sp,12
 80020d8:	f800283a 	ret
 80020dc:	80c00017 	ldw	r3,0(r16)
 80020e0:	183ff926 	beq	r3,zero,80020c8 <__alt_data_end+0xfc0020c8>
 80020e4:	88c00015 	stw	r3,0(r17)
 80020e8:	003ff706 	br	80020c8 <__alt_data_end+0xfc0020c8>

080020ec <_fwalk>:
 80020ec:	defff804 	addi	sp,sp,-32
 80020f0:	dd400515 	stw	r21,20(sp)
 80020f4:	2540b804 	addi	r21,r4,736
 80020f8:	dd800615 	stw	r22,24(sp)
 80020fc:	dd000415 	stw	r20,16(sp)
 8002100:	dfc00715 	stw	ra,28(sp)
 8002104:	dcc00315 	stw	r19,12(sp)
 8002108:	dc800215 	stw	r18,8(sp)
 800210c:	dc400115 	stw	r17,4(sp)
 8002110:	dc000015 	stw	r16,0(sp)
 8002114:	2829883a 	mov	r20,r5
 8002118:	002d883a 	mov	r22,zero
 800211c:	80016bc0 	call	80016bc <__sfp_lock_acquire>
 8002120:	a8001426 	beq	r21,zero,8002174 <_fwalk+0x88>
 8002124:	04ffffc4 	movi	r19,-1
 8002128:	ac400117 	ldw	r17,4(r21)
 800212c:	ac800217 	ldw	r18,8(r21)
 8002130:	8c7fffc4 	addi	r17,r17,-1
 8002134:	88000d16 	blt	r17,zero,800216c <_fwalk+0x80>
 8002138:	94000304 	addi	r16,r18,12
 800213c:	94800384 	addi	r18,r18,14
 8002140:	80c0000f 	ldh	r3,0(r16)
 8002144:	8c7fffc4 	addi	r17,r17,-1
 8002148:	813ffd04 	addi	r4,r16,-12
 800214c:	18000426 	beq	r3,zero,8002160 <_fwalk+0x74>
 8002150:	90c0000f 	ldh	r3,0(r18)
 8002154:	1cc00226 	beq	r3,r19,8002160 <_fwalk+0x74>
 8002158:	a03ee83a 	callr	r20
 800215c:	b0acb03a 	or	r22,r22,r2
 8002160:	84001a04 	addi	r16,r16,104
 8002164:	94801a04 	addi	r18,r18,104
 8002168:	8cfff51e 	bne	r17,r19,8002140 <__alt_data_end+0xfc002140>
 800216c:	ad400017 	ldw	r21,0(r21)
 8002170:	a83fed1e 	bne	r21,zero,8002128 <__alt_data_end+0xfc002128>
 8002174:	80016c00 	call	80016c0 <__sfp_lock_release>
 8002178:	b005883a 	mov	r2,r22
 800217c:	dfc00717 	ldw	ra,28(sp)
 8002180:	dd800617 	ldw	r22,24(sp)
 8002184:	dd400517 	ldw	r21,20(sp)
 8002188:	dd000417 	ldw	r20,16(sp)
 800218c:	dcc00317 	ldw	r19,12(sp)
 8002190:	dc800217 	ldw	r18,8(sp)
 8002194:	dc400117 	ldw	r17,4(sp)
 8002198:	dc000017 	ldw	r16,0(sp)
 800219c:	dec00804 	addi	sp,sp,32
 80021a0:	f800283a 	ret

080021a4 <_fwalk_reent>:
 80021a4:	defff804 	addi	sp,sp,-32
 80021a8:	dd400515 	stw	r21,20(sp)
 80021ac:	2540b804 	addi	r21,r4,736
 80021b0:	dd800615 	stw	r22,24(sp)
 80021b4:	dd000415 	stw	r20,16(sp)
 80021b8:	dcc00315 	stw	r19,12(sp)
 80021bc:	dfc00715 	stw	ra,28(sp)
 80021c0:	dc800215 	stw	r18,8(sp)
 80021c4:	dc400115 	stw	r17,4(sp)
 80021c8:	dc000015 	stw	r16,0(sp)
 80021cc:	2027883a 	mov	r19,r4
 80021d0:	2829883a 	mov	r20,r5
 80021d4:	002d883a 	mov	r22,zero
 80021d8:	80016bc0 	call	80016bc <__sfp_lock_acquire>
 80021dc:	a8001326 	beq	r21,zero,800222c <_fwalk_reent+0x88>
 80021e0:	04bfffc4 	movi	r18,-1
 80021e4:	ac400117 	ldw	r17,4(r21)
 80021e8:	ac000217 	ldw	r16,8(r21)
 80021ec:	8c7fffc4 	addi	r17,r17,-1
 80021f0:	88000c16 	blt	r17,zero,8002224 <_fwalk_reent+0x80>
 80021f4:	84000304 	addi	r16,r16,12
 80021f8:	80c0000f 	ldh	r3,0(r16)
 80021fc:	8c7fffc4 	addi	r17,r17,-1
 8002200:	817ffd04 	addi	r5,r16,-12
 8002204:	18000526 	beq	r3,zero,800221c <_fwalk_reent+0x78>
 8002208:	80c0008f 	ldh	r3,2(r16)
 800220c:	9809883a 	mov	r4,r19
 8002210:	1c800226 	beq	r3,r18,800221c <_fwalk_reent+0x78>
 8002214:	a03ee83a 	callr	r20
 8002218:	b0acb03a 	or	r22,r22,r2
 800221c:	84001a04 	addi	r16,r16,104
 8002220:	8cbff51e 	bne	r17,r18,80021f8 <__alt_data_end+0xfc0021f8>
 8002224:	ad400017 	ldw	r21,0(r21)
 8002228:	a83fee1e 	bne	r21,zero,80021e4 <__alt_data_end+0xfc0021e4>
 800222c:	80016c00 	call	80016c0 <__sfp_lock_release>
 8002230:	b005883a 	mov	r2,r22
 8002234:	dfc00717 	ldw	ra,28(sp)
 8002238:	dd800617 	ldw	r22,24(sp)
 800223c:	dd400517 	ldw	r21,20(sp)
 8002240:	dd000417 	ldw	r20,16(sp)
 8002244:	dcc00317 	ldw	r19,12(sp)
 8002248:	dc800217 	ldw	r18,8(sp)
 800224c:	dc400117 	ldw	r17,4(sp)
 8002250:	dc000017 	ldw	r16,0(sp)
 8002254:	dec00804 	addi	sp,sp,32
 8002258:	f800283a 	ret

0800225c <_fwrite_r>:
 800225c:	defff504 	addi	sp,sp,-44
 8002260:	dc800715 	stw	r18,28(sp)
 8002264:	d9400315 	stw	r5,12(sp)
 8002268:	2025883a 	mov	r18,r4
 800226c:	300b883a 	mov	r5,r6
 8002270:	3809883a 	mov	r4,r7
 8002274:	dd000915 	stw	r20,36(sp)
 8002278:	dcc00815 	stw	r19,32(sp)
 800227c:	dc400615 	stw	r17,24(sp)
 8002280:	dfc00a15 	stw	ra,40(sp)
 8002284:	3029883a 	mov	r20,r6
 8002288:	3823883a 	mov	r17,r7
 800228c:	800bf500 	call	800bf50 <__mulsi3>
 8002290:	1027883a 	mov	r19,r2
 8002294:	d8800415 	stw	r2,16(sp)
 8002298:	d8800215 	stw	r2,8(sp)
 800229c:	d8800304 	addi	r2,sp,12
 80022a0:	d8800015 	stw	r2,0(sp)
 80022a4:	00800044 	movi	r2,1
 80022a8:	d8800115 	stw	r2,4(sp)
 80022ac:	d9400b17 	ldw	r5,44(sp)
 80022b0:	90000226 	beq	r18,zero,80022bc <_fwrite_r+0x60>
 80022b4:	90800e17 	ldw	r2,56(r18)
 80022b8:	10001a26 	beq	r2,zero,8002324 <_fwrite_r+0xc8>
 80022bc:	2880030b 	ldhu	r2,12(r5)
 80022c0:	10c8000c 	andi	r3,r2,8192
 80022c4:	1800061e 	bne	r3,zero,80022e0 <_fwrite_r+0x84>
 80022c8:	29001917 	ldw	r4,100(r5)
 80022cc:	00f7ffc4 	movi	r3,-8193
 80022d0:	10880014 	ori	r2,r2,8192
 80022d4:	20c6703a 	and	r3,r4,r3
 80022d8:	2880030d 	sth	r2,12(r5)
 80022dc:	28c01915 	stw	r3,100(r5)
 80022e0:	9009883a 	mov	r4,r18
 80022e4:	d80d883a 	mov	r6,sp
 80022e8:	800753c0 	call	800753c <__sfvwrite_r>
 80022ec:	10000b26 	beq	r2,zero,800231c <_fwrite_r+0xc0>
 80022f0:	d9000217 	ldw	r4,8(sp)
 80022f4:	a00b883a 	mov	r5,r20
 80022f8:	9909c83a 	sub	r4,r19,r4
 80022fc:	800bf400 	call	800bf40 <__udivsi3>
 8002300:	dfc00a17 	ldw	ra,40(sp)
 8002304:	dd000917 	ldw	r20,36(sp)
 8002308:	dcc00817 	ldw	r19,32(sp)
 800230c:	dc800717 	ldw	r18,28(sp)
 8002310:	dc400617 	ldw	r17,24(sp)
 8002314:	dec00b04 	addi	sp,sp,44
 8002318:	f800283a 	ret
 800231c:	8805883a 	mov	r2,r17
 8002320:	003ff706 	br	8002300 <__alt_data_end+0xfc002300>
 8002324:	9009883a 	mov	r4,r18
 8002328:	d9400515 	stw	r5,20(sp)
 800232c:	80016ac0 	call	80016ac <__sinit>
 8002330:	d9400517 	ldw	r5,20(sp)
 8002334:	003fe106 	br	80022bc <__alt_data_end+0xfc0022bc>

08002338 <fwrite>:
 8002338:	00820074 	movhi	r2,2049
 800233c:	108f3204 	addi	r2,r2,15560
 8002340:	2011883a 	mov	r8,r4
 8002344:	11000017 	ldw	r4,0(r2)
 8002348:	defffe04 	addi	sp,sp,-8
 800234c:	2807883a 	mov	r3,r5
 8002350:	3005883a 	mov	r2,r6
 8002354:	d9c00015 	stw	r7,0(sp)
 8002358:	400b883a 	mov	r5,r8
 800235c:	180d883a 	mov	r6,r3
 8002360:	100f883a 	mov	r7,r2
 8002364:	dfc00115 	stw	ra,4(sp)
 8002368:	800225c0 	call	800225c <_fwrite_r>
 800236c:	dfc00117 	ldw	ra,4(sp)
 8002370:	dec00204 	addi	sp,sp,8
 8002374:	f800283a 	ret

08002378 <_getc_r>:
 8002378:	defffd04 	addi	sp,sp,-12
 800237c:	dc400115 	stw	r17,4(sp)
 8002380:	dc000015 	stw	r16,0(sp)
 8002384:	dfc00215 	stw	ra,8(sp)
 8002388:	2023883a 	mov	r17,r4
 800238c:	2821883a 	mov	r16,r5
 8002390:	20000226 	beq	r4,zero,800239c <_getc_r+0x24>
 8002394:	20800e17 	ldw	r2,56(r4)
 8002398:	10001026 	beq	r2,zero,80023dc <_getc_r+0x64>
 800239c:	80016bc0 	call	80016bc <__sfp_lock_acquire>
 80023a0:	80800117 	ldw	r2,4(r16)
 80023a4:	10bfffc4 	addi	r2,r2,-1
 80023a8:	80800115 	stw	r2,4(r16)
 80023ac:	10000d16 	blt	r2,zero,80023e4 <_getc_r+0x6c>
 80023b0:	80800017 	ldw	r2,0(r16)
 80023b4:	10c00044 	addi	r3,r2,1
 80023b8:	80c00015 	stw	r3,0(r16)
 80023bc:	14000003 	ldbu	r16,0(r2)
 80023c0:	80016c00 	call	80016c0 <__sfp_lock_release>
 80023c4:	8005883a 	mov	r2,r16
 80023c8:	dfc00217 	ldw	ra,8(sp)
 80023cc:	dc400117 	ldw	r17,4(sp)
 80023d0:	dc000017 	ldw	r16,0(sp)
 80023d4:	dec00304 	addi	sp,sp,12
 80023d8:	f800283a 	ret
 80023dc:	80016ac0 	call	80016ac <__sinit>
 80023e0:	003fee06 	br	800239c <__alt_data_end+0xfc00239c>
 80023e4:	800b883a 	mov	r5,r16
 80023e8:	8809883a 	mov	r4,r17
 80023ec:	80032580 	call	8003258 <__srget_r>
 80023f0:	1021883a 	mov	r16,r2
 80023f4:	003ff206 	br	80023c0 <__alt_data_end+0xfc0023c0>

080023f8 <getc>:
 80023f8:	defffd04 	addi	sp,sp,-12
 80023fc:	dc400115 	stw	r17,4(sp)
 8002400:	04420074 	movhi	r17,2049
 8002404:	8c4f3204 	addi	r17,r17,15560
 8002408:	dc000015 	stw	r16,0(sp)
 800240c:	2021883a 	mov	r16,r4
 8002410:	89000017 	ldw	r4,0(r17)
 8002414:	dfc00215 	stw	ra,8(sp)
 8002418:	20000226 	beq	r4,zero,8002424 <getc+0x2c>
 800241c:	20800e17 	ldw	r2,56(r4)
 8002420:	10001026 	beq	r2,zero,8002464 <getc+0x6c>
 8002424:	80016bc0 	call	80016bc <__sfp_lock_acquire>
 8002428:	80800117 	ldw	r2,4(r16)
 800242c:	10bfffc4 	addi	r2,r2,-1
 8002430:	80800115 	stw	r2,4(r16)
 8002434:	10000d16 	blt	r2,zero,800246c <getc+0x74>
 8002438:	80800017 	ldw	r2,0(r16)
 800243c:	10c00044 	addi	r3,r2,1
 8002440:	80c00015 	stw	r3,0(r16)
 8002444:	14000003 	ldbu	r16,0(r2)
 8002448:	80016c00 	call	80016c0 <__sfp_lock_release>
 800244c:	8005883a 	mov	r2,r16
 8002450:	dfc00217 	ldw	ra,8(sp)
 8002454:	dc400117 	ldw	r17,4(sp)
 8002458:	dc000017 	ldw	r16,0(sp)
 800245c:	dec00304 	addi	sp,sp,12
 8002460:	f800283a 	ret
 8002464:	80016ac0 	call	80016ac <__sinit>
 8002468:	003fee06 	br	8002424 <__alt_data_end+0xfc002424>
 800246c:	89000017 	ldw	r4,0(r17)
 8002470:	800b883a 	mov	r5,r16
 8002474:	80032580 	call	8003258 <__srget_r>
 8002478:	1021883a 	mov	r16,r2
 800247c:	003ff206 	br	8002448 <__alt_data_end+0xfc002448>

08002480 <__smakebuf_r>:
 8002480:	2880030b 	ldhu	r2,12(r5)
 8002484:	10c0008c 	andi	r3,r2,2
 8002488:	1800401e 	bne	r3,zero,800258c <__smakebuf_r+0x10c>
 800248c:	deffec04 	addi	sp,sp,-80
 8002490:	dc000f15 	stw	r16,60(sp)
 8002494:	2821883a 	mov	r16,r5
 8002498:	2940038f 	ldh	r5,14(r5)
 800249c:	dc401015 	stw	r17,64(sp)
 80024a0:	dfc01315 	stw	ra,76(sp)
 80024a4:	dcc01215 	stw	r19,72(sp)
 80024a8:	dc801115 	stw	r18,68(sp)
 80024ac:	2023883a 	mov	r17,r4
 80024b0:	28001b16 	blt	r5,zero,8002520 <__smakebuf_r+0xa0>
 80024b4:	d80d883a 	mov	r6,sp
 80024b8:	80020940 	call	8002094 <_fstat_r>
 80024bc:	10001716 	blt	r2,zero,800251c <__smakebuf_r+0x9c>
 80024c0:	d8800117 	ldw	r2,4(sp)
 80024c4:	00e00014 	movui	r3,32768
 80024c8:	10bc000c 	andi	r2,r2,61440
 80024cc:	10c03726 	beq	r2,r3,80025ac <__smakebuf_r+0x12c>
 80024d0:	80c0030b 	ldhu	r3,12(r16)
 80024d4:	18c20014 	ori	r3,r3,2048
 80024d8:	80c0030d 	sth	r3,12(r16)
 80024dc:	00c80004 	movi	r3,8192
 80024e0:	10c03c1e 	bne	r2,r3,80025d4 <__smakebuf_r+0x154>
 80024e4:	8140038f 	ldh	r5,14(r16)
 80024e8:	8809883a 	mov	r4,r17
 80024ec:	80079e00 	call	80079e0 <_isatty_r>
 80024f0:	10004e26 	beq	r2,zero,800262c <__smakebuf_r+0x1ac>
 80024f4:	8080030b 	ldhu	r2,12(r16)
 80024f8:	04c00044 	movi	r19,1
 80024fc:	80c010c4 	addi	r3,r16,67
 8002500:	14c4b03a 	or	r2,r2,r19
 8002504:	8080030d 	sth	r2,12(r16)
 8002508:	80c00015 	stw	r3,0(r16)
 800250c:	80c00415 	stw	r3,16(r16)
 8002510:	84c00515 	stw	r19,20(r16)
 8002514:	04810004 	movi	r18,1024
 8002518:	00000706 	br	8002538 <__smakebuf_r+0xb8>
 800251c:	8080030b 	ldhu	r2,12(r16)
 8002520:	10c0200c 	andi	r3,r2,128
 8002524:	18001f1e 	bne	r3,zero,80025a4 <__smakebuf_r+0x124>
 8002528:	04810004 	movi	r18,1024
 800252c:	10820014 	ori	r2,r2,2048
 8002530:	8080030d 	sth	r2,12(r16)
 8002534:	0027883a 	mov	r19,zero
 8002538:	8809883a 	mov	r4,r17
 800253c:	900b883a 	mov	r5,r18
 8002540:	80026380 	call	8002638 <_malloc_r>
 8002544:	10002e26 	beq	r2,zero,8002600 <__smakebuf_r+0x180>
 8002548:	80c0030b 	ldhu	r3,12(r16)
 800254c:	01020034 	movhi	r4,2048
 8002550:	2104d604 	addi	r4,r4,4952
 8002554:	89000f15 	stw	r4,60(r17)
 8002558:	18c02014 	ori	r3,r3,128
 800255c:	80c0030d 	sth	r3,12(r16)
 8002560:	80800015 	stw	r2,0(r16)
 8002564:	80800415 	stw	r2,16(r16)
 8002568:	84800515 	stw	r18,20(r16)
 800256c:	98001c1e 	bne	r19,zero,80025e0 <__smakebuf_r+0x160>
 8002570:	dfc01317 	ldw	ra,76(sp)
 8002574:	dcc01217 	ldw	r19,72(sp)
 8002578:	dc801117 	ldw	r18,68(sp)
 800257c:	dc401017 	ldw	r17,64(sp)
 8002580:	dc000f17 	ldw	r16,60(sp)
 8002584:	dec01404 	addi	sp,sp,80
 8002588:	f800283a 	ret
 800258c:	288010c4 	addi	r2,r5,67
 8002590:	28800015 	stw	r2,0(r5)
 8002594:	28800415 	stw	r2,16(r5)
 8002598:	00800044 	movi	r2,1
 800259c:	28800515 	stw	r2,20(r5)
 80025a0:	f800283a 	ret
 80025a4:	04801004 	movi	r18,64
 80025a8:	003fe006 	br	800252c <__alt_data_end+0xfc00252c>
 80025ac:	81000a17 	ldw	r4,40(r16)
 80025b0:	00c20034 	movhi	r3,2048
 80025b4:	18cd0304 	addi	r3,r3,13324
 80025b8:	20ffc51e 	bne	r4,r3,80024d0 <__alt_data_end+0xfc0024d0>
 80025bc:	80c0030b 	ldhu	r3,12(r16)
 80025c0:	01010004 	movi	r4,1024
 80025c4:	81001315 	stw	r4,76(r16)
 80025c8:	1906b03a 	or	r3,r3,r4
 80025cc:	80c0030d 	sth	r3,12(r16)
 80025d0:	003fc206 	br	80024dc <__alt_data_end+0xfc0024dc>
 80025d4:	0027883a 	mov	r19,zero
 80025d8:	04810004 	movi	r18,1024
 80025dc:	003fd606 	br	8002538 <__alt_data_end+0xfc002538>
 80025e0:	8140038f 	ldh	r5,14(r16)
 80025e4:	8809883a 	mov	r4,r17
 80025e8:	80079e00 	call	80079e0 <_isatty_r>
 80025ec:	103fe026 	beq	r2,zero,8002570 <__alt_data_end+0xfc002570>
 80025f0:	8080030b 	ldhu	r2,12(r16)
 80025f4:	10800054 	ori	r2,r2,1
 80025f8:	8080030d 	sth	r2,12(r16)
 80025fc:	003fdc06 	br	8002570 <__alt_data_end+0xfc002570>
 8002600:	8080030b 	ldhu	r2,12(r16)
 8002604:	10c0800c 	andi	r3,r2,512
 8002608:	183fd91e 	bne	r3,zero,8002570 <__alt_data_end+0xfc002570>
 800260c:	10800094 	ori	r2,r2,2
 8002610:	80c010c4 	addi	r3,r16,67
 8002614:	8080030d 	sth	r2,12(r16)
 8002618:	00800044 	movi	r2,1
 800261c:	80c00015 	stw	r3,0(r16)
 8002620:	80c00415 	stw	r3,16(r16)
 8002624:	80800515 	stw	r2,20(r16)
 8002628:	003fd106 	br	8002570 <__alt_data_end+0xfc002570>
 800262c:	04c00044 	movi	r19,1
 8002630:	04810004 	movi	r18,1024
 8002634:	003fc006 	br	8002538 <__alt_data_end+0xfc002538>

08002638 <_malloc_r>:
 8002638:	defff504 	addi	sp,sp,-44
 800263c:	dc800315 	stw	r18,12(sp)
 8002640:	dfc00a15 	stw	ra,40(sp)
 8002644:	df000915 	stw	fp,36(sp)
 8002648:	ddc00815 	stw	r23,32(sp)
 800264c:	dd800715 	stw	r22,28(sp)
 8002650:	dd400615 	stw	r21,24(sp)
 8002654:	dd000515 	stw	r20,20(sp)
 8002658:	dcc00415 	stw	r19,16(sp)
 800265c:	dc400215 	stw	r17,8(sp)
 8002660:	dc000115 	stw	r16,4(sp)
 8002664:	288002c4 	addi	r2,r5,11
 8002668:	00c00584 	movi	r3,22
 800266c:	2025883a 	mov	r18,r4
 8002670:	18802a2e 	bgeu	r3,r2,800271c <_malloc_r+0xe4>
 8002674:	047ffe04 	movi	r17,-8
 8002678:	1462703a 	and	r17,r2,r17
 800267c:	88009e16 	blt	r17,zero,80028f8 <_malloc_r+0x2c0>
 8002680:	89409d36 	bltu	r17,r5,80028f8 <_malloc_r+0x2c0>
 8002684:	800ed540 	call	800ed54 <__malloc_lock>
 8002688:	00807dc4 	movi	r2,503
 800268c:	14402736 	bltu	r2,r17,800272c <_malloc_r+0xf4>
 8002690:	8806d0fa 	srli	r3,r17,3
 8002694:	04c20074 	movhi	r19,2049
 8002698:	9cc95e04 	addi	r19,r19,9592
 800269c:	18c5883a 	add	r2,r3,r3
 80026a0:	1085883a 	add	r2,r2,r2
 80026a4:	1085883a 	add	r2,r2,r2
 80026a8:	9885883a 	add	r2,r19,r2
 80026ac:	14000317 	ldw	r16,12(r2)
 80026b0:	80814a26 	beq	r16,r2,8002bdc <_malloc_r+0x5a4>
 80026b4:	80c00117 	ldw	r3,4(r16)
 80026b8:	81000317 	ldw	r4,12(r16)
 80026bc:	00bfff04 	movi	r2,-4
 80026c0:	1884703a 	and	r2,r3,r2
 80026c4:	81400217 	ldw	r5,8(r16)
 80026c8:	8085883a 	add	r2,r16,r2
 80026cc:	10c00117 	ldw	r3,4(r2)
 80026d0:	29000315 	stw	r4,12(r5)
 80026d4:	21400215 	stw	r5,8(r4)
 80026d8:	18c00054 	ori	r3,r3,1
 80026dc:	10c00115 	stw	r3,4(r2)
 80026e0:	9009883a 	mov	r4,r18
 80026e4:	800ed740 	call	800ed74 <__malloc_unlock>
 80026e8:	80800204 	addi	r2,r16,8
 80026ec:	dfc00a17 	ldw	ra,40(sp)
 80026f0:	df000917 	ldw	fp,36(sp)
 80026f4:	ddc00817 	ldw	r23,32(sp)
 80026f8:	dd800717 	ldw	r22,28(sp)
 80026fc:	dd400617 	ldw	r21,24(sp)
 8002700:	dd000517 	ldw	r20,20(sp)
 8002704:	dcc00417 	ldw	r19,16(sp)
 8002708:	dc800317 	ldw	r18,12(sp)
 800270c:	dc400217 	ldw	r17,8(sp)
 8002710:	dc000117 	ldw	r16,4(sp)
 8002714:	dec00b04 	addi	sp,sp,44
 8002718:	f800283a 	ret
 800271c:	04400404 	movi	r17,16
 8002720:	89407536 	bltu	r17,r5,80028f8 <_malloc_r+0x2c0>
 8002724:	800ed540 	call	800ed54 <__malloc_lock>
 8002728:	003fd906 	br	8002690 <__alt_data_end+0xfc002690>
 800272c:	8806d27a 	srli	r3,r17,9
 8002730:	18007526 	beq	r3,zero,8002908 <_malloc_r+0x2d0>
 8002734:	00800104 	movi	r2,4
 8002738:	10c0ef36 	bltu	r2,r3,8002af8 <_malloc_r+0x4c0>
 800273c:	8806d1ba 	srli	r3,r17,6
 8002740:	19c00e04 	addi	r7,r3,56
 8002744:	39cb883a 	add	r5,r7,r7
 8002748:	04c20074 	movhi	r19,2049
 800274c:	294b883a 	add	r5,r5,r5
 8002750:	9cc95e04 	addi	r19,r19,9592
 8002754:	294b883a 	add	r5,r5,r5
 8002758:	994b883a 	add	r5,r19,r5
 800275c:	2c000317 	ldw	r16,12(r5)
 8002760:	2c000e26 	beq	r5,r16,800279c <_malloc_r+0x164>
 8002764:	80800117 	ldw	r2,4(r16)
 8002768:	01bfff04 	movi	r6,-4
 800276c:	010003c4 	movi	r4,15
 8002770:	1184703a 	and	r2,r2,r6
 8002774:	1447c83a 	sub	r3,r2,r17
 8002778:	20c00716 	blt	r4,r3,8002798 <_malloc_r+0x160>
 800277c:	1800650e 	bge	r3,zero,8002914 <_malloc_r+0x2dc>
 8002780:	84000317 	ldw	r16,12(r16)
 8002784:	2c000526 	beq	r5,r16,800279c <_malloc_r+0x164>
 8002788:	80800117 	ldw	r2,4(r16)
 800278c:	1184703a 	and	r2,r2,r6
 8002790:	1447c83a 	sub	r3,r2,r17
 8002794:	20fff90e 	bge	r4,r3,800277c <__alt_data_end+0xfc00277c>
 8002798:	39ffffc4 	addi	r7,r7,-1
 800279c:	38c00044 	addi	r3,r7,1
 80027a0:	01820074 	movhi	r6,2049
 80027a4:	9c000417 	ldw	r16,16(r19)
 80027a8:	31895e04 	addi	r6,r6,9592
 80027ac:	32400204 	addi	r9,r6,8
 80027b0:	82410326 	beq	r16,r9,8002bc0 <_malloc_r+0x588>
 80027b4:	81000117 	ldw	r4,4(r16)
 80027b8:	00bfff04 	movi	r2,-4
 80027bc:	208e703a 	and	r7,r4,r2
 80027c0:	3c45c83a 	sub	r2,r7,r17
 80027c4:	010003c4 	movi	r4,15
 80027c8:	2080ee16 	blt	r4,r2,8002b84 <_malloc_r+0x54c>
 80027cc:	32400515 	stw	r9,20(r6)
 80027d0:	32400415 	stw	r9,16(r6)
 80027d4:	1000510e 	bge	r2,zero,800291c <_malloc_r+0x2e4>
 80027d8:	00807fc4 	movi	r2,511
 80027dc:	11c0ce36 	bltu	r2,r7,8002b18 <_malloc_r+0x4e0>
 80027e0:	3808d0fa 	srli	r4,r7,3
 80027e4:	01c00044 	movi	r7,1
 80027e8:	30800117 	ldw	r2,4(r6)
 80027ec:	210b883a 	add	r5,r4,r4
 80027f0:	294b883a 	add	r5,r5,r5
 80027f4:	2009d0ba 	srai	r4,r4,2
 80027f8:	294b883a 	add	r5,r5,r5
 80027fc:	298b883a 	add	r5,r5,r6
 8002800:	2a000217 	ldw	r8,8(r5)
 8002804:	3908983a 	sll	r4,r7,r4
 8002808:	81400315 	stw	r5,12(r16)
 800280c:	82000215 	stw	r8,8(r16)
 8002810:	2088b03a 	or	r4,r4,r2
 8002814:	2c000215 	stw	r16,8(r5)
 8002818:	31000115 	stw	r4,4(r6)
 800281c:	44000315 	stw	r16,12(r8)
 8002820:	1805d0ba 	srai	r2,r3,2
 8002824:	01400044 	movi	r5,1
 8002828:	288a983a 	sll	r5,r5,r2
 800282c:	21404336 	bltu	r4,r5,800293c <_malloc_r+0x304>
 8002830:	2144703a 	and	r2,r4,r5
 8002834:	10000a1e 	bne	r2,zero,8002860 <_malloc_r+0x228>
 8002838:	00bfff04 	movi	r2,-4
 800283c:	294b883a 	add	r5,r5,r5
 8002840:	1886703a 	and	r3,r3,r2
 8002844:	2144703a 	and	r2,r4,r5
 8002848:	18c00104 	addi	r3,r3,4
 800284c:	1000041e 	bne	r2,zero,8002860 <_malloc_r+0x228>
 8002850:	294b883a 	add	r5,r5,r5
 8002854:	2144703a 	and	r2,r4,r5
 8002858:	18c00104 	addi	r3,r3,4
 800285c:	103ffc26 	beq	r2,zero,8002850 <__alt_data_end+0xfc002850>
 8002860:	023fff04 	movi	r8,-4
 8002864:	01c003c4 	movi	r7,15
 8002868:	18c5883a 	add	r2,r3,r3
 800286c:	1085883a 	add	r2,r2,r2
 8002870:	1085883a 	add	r2,r2,r2
 8002874:	9895883a 	add	r10,r19,r2
 8002878:	52c00304 	addi	r11,r10,12
 800287c:	1819883a 	mov	r12,r3
 8002880:	5c000017 	ldw	r16,0(r11)
 8002884:	59bffd04 	addi	r6,r11,-12
 8002888:	8180041e 	bne	r16,r6,800289c <_malloc_r+0x264>
 800288c:	0000ce06 	br	8002bc8 <_malloc_r+0x590>
 8002890:	2000d70e 	bge	r4,zero,8002bf0 <_malloc_r+0x5b8>
 8002894:	84000317 	ldw	r16,12(r16)
 8002898:	8180cb26 	beq	r16,r6,8002bc8 <_malloc_r+0x590>
 800289c:	80800117 	ldw	r2,4(r16)
 80028a0:	1204703a 	and	r2,r2,r8
 80028a4:	1449c83a 	sub	r4,r2,r17
 80028a8:	393ff90e 	bge	r7,r4,8002890 <__alt_data_end+0xfc002890>
 80028ac:	80800317 	ldw	r2,12(r16)
 80028b0:	80c00217 	ldw	r3,8(r16)
 80028b4:	89400054 	ori	r5,r17,1
 80028b8:	81400115 	stw	r5,4(r16)
 80028bc:	18800315 	stw	r2,12(r3)
 80028c0:	10c00215 	stw	r3,8(r2)
 80028c4:	8463883a 	add	r17,r16,r17
 80028c8:	9c400515 	stw	r17,20(r19)
 80028cc:	9c400415 	stw	r17,16(r19)
 80028d0:	20800054 	ori	r2,r4,1
 80028d4:	88800115 	stw	r2,4(r17)
 80028d8:	8a400315 	stw	r9,12(r17)
 80028dc:	8a400215 	stw	r9,8(r17)
 80028e0:	8923883a 	add	r17,r17,r4
 80028e4:	89000015 	stw	r4,0(r17)
 80028e8:	9009883a 	mov	r4,r18
 80028ec:	800ed740 	call	800ed74 <__malloc_unlock>
 80028f0:	80800204 	addi	r2,r16,8
 80028f4:	003f7d06 	br	80026ec <__alt_data_end+0xfc0026ec>
 80028f8:	00800304 	movi	r2,12
 80028fc:	90800015 	stw	r2,0(r18)
 8002900:	0005883a 	mov	r2,zero
 8002904:	003f7906 	br	80026ec <__alt_data_end+0xfc0026ec>
 8002908:	01401f84 	movi	r5,126
 800290c:	01c00fc4 	movi	r7,63
 8002910:	003f8d06 	br	8002748 <__alt_data_end+0xfc002748>
 8002914:	81000317 	ldw	r4,12(r16)
 8002918:	003f6a06 	br	80026c4 <__alt_data_end+0xfc0026c4>
 800291c:	81c5883a 	add	r2,r16,r7
 8002920:	10c00117 	ldw	r3,4(r2)
 8002924:	9009883a 	mov	r4,r18
 8002928:	18c00054 	ori	r3,r3,1
 800292c:	10c00115 	stw	r3,4(r2)
 8002930:	800ed740 	call	800ed74 <__malloc_unlock>
 8002934:	80800204 	addi	r2,r16,8
 8002938:	003f6c06 	br	80026ec <__alt_data_end+0xfc0026ec>
 800293c:	9c000217 	ldw	r16,8(r19)
 8002940:	00bfff04 	movi	r2,-4
 8002944:	85800117 	ldw	r22,4(r16)
 8002948:	b0ac703a 	and	r22,r22,r2
 800294c:	b4400336 	bltu	r22,r17,800295c <_malloc_r+0x324>
 8002950:	b445c83a 	sub	r2,r22,r17
 8002954:	00c003c4 	movi	r3,15
 8002958:	18805d16 	blt	r3,r2,8002ad0 <_malloc_r+0x498>
 800295c:	05c20074 	movhi	r23,2049
 8002960:	00820074 	movhi	r2,2049
 8002964:	bdcf3304 	addi	r23,r23,15564
 8002968:	10963204 	addi	r2,r2,22728
 800296c:	15400017 	ldw	r21,0(r2)
 8002970:	b9000017 	ldw	r4,0(r23)
 8002974:	00ffffc4 	movi	r3,-1
 8002978:	858d883a 	add	r6,r16,r22
 800297c:	8d6b883a 	add	r21,r17,r21
 8002980:	20c0e426 	beq	r4,r3,8002d14 <_malloc_r+0x6dc>
 8002984:	ad4403c4 	addi	r21,r21,4111
 8002988:	00fc0004 	movi	r3,-4096
 800298c:	a8ea703a 	and	r21,r21,r3
 8002990:	9009883a 	mov	r4,r18
 8002994:	a80b883a 	mov	r5,r21
 8002998:	d9800015 	stw	r6,0(sp)
 800299c:	80032e00 	call	80032e0 <_sbrk_r>
 80029a0:	00ffffc4 	movi	r3,-1
 80029a4:	1029883a 	mov	r20,r2
 80029a8:	d9800017 	ldw	r6,0(sp)
 80029ac:	10c0a426 	beq	r2,r3,8002c40 <_malloc_r+0x608>
 80029b0:	1180a236 	bltu	r2,r6,8002c3c <_malloc_r+0x604>
 80029b4:	07020074 	movhi	fp,2049
 80029b8:	e7163c04 	addi	fp,fp,22768
 80029bc:	e0c00017 	ldw	r3,0(fp)
 80029c0:	a8c7883a 	add	r3,r21,r3
 80029c4:	e0c00015 	stw	r3,0(fp)
 80029c8:	3500da26 	beq	r6,r20,8002d34 <_malloc_r+0x6fc>
 80029cc:	b9000017 	ldw	r4,0(r23)
 80029d0:	00bfffc4 	movi	r2,-1
 80029d4:	2080e426 	beq	r4,r2,8002d68 <_malloc_r+0x730>
 80029d8:	a185c83a 	sub	r2,r20,r6
 80029dc:	1885883a 	add	r2,r3,r2
 80029e0:	e0800015 	stw	r2,0(fp)
 80029e4:	a0c001cc 	andi	r3,r20,7
 80029e8:	1800b526 	beq	r3,zero,8002cc0 <_malloc_r+0x688>
 80029ec:	a0e9c83a 	sub	r20,r20,r3
 80029f0:	00840204 	movi	r2,4104
 80029f4:	a5000204 	addi	r20,r20,8
 80029f8:	10c7c83a 	sub	r3,r2,r3
 80029fc:	a545883a 	add	r2,r20,r21
 8002a00:	1083ffcc 	andi	r2,r2,4095
 8002a04:	18abc83a 	sub	r21,r3,r2
 8002a08:	9009883a 	mov	r4,r18
 8002a0c:	a80b883a 	mov	r5,r21
 8002a10:	80032e00 	call	80032e0 <_sbrk_r>
 8002a14:	00ffffc4 	movi	r3,-1
 8002a18:	10c0d026 	beq	r2,r3,8002d5c <_malloc_r+0x724>
 8002a1c:	1507c83a 	sub	r3,r2,r20
 8002a20:	a8c7883a 	add	r3,r21,r3
 8002a24:	18c00054 	ori	r3,r3,1
 8002a28:	e0800017 	ldw	r2,0(fp)
 8002a2c:	9d000215 	stw	r20,8(r19)
 8002a30:	a0c00115 	stw	r3,4(r20)
 8002a34:	a887883a 	add	r3,r21,r2
 8002a38:	e0c00015 	stw	r3,0(fp)
 8002a3c:	84c00e26 	beq	r16,r19,8002a78 <_malloc_r+0x440>
 8002a40:	018003c4 	movi	r6,15
 8002a44:	3580a02e 	bgeu	r6,r22,8002cc8 <_malloc_r+0x690>
 8002a48:	81400117 	ldw	r5,4(r16)
 8002a4c:	013ffe04 	movi	r4,-8
 8002a50:	b0bffd04 	addi	r2,r22,-12
 8002a54:	1104703a 	and	r2,r2,r4
 8002a58:	2900004c 	andi	r4,r5,1
 8002a5c:	1108b03a 	or	r4,r2,r4
 8002a60:	81000115 	stw	r4,4(r16)
 8002a64:	01400144 	movi	r5,5
 8002a68:	8089883a 	add	r4,r16,r2
 8002a6c:	21400115 	stw	r5,4(r4)
 8002a70:	21400215 	stw	r5,8(r4)
 8002a74:	3080c036 	bltu	r6,r2,8002d78 <_malloc_r+0x740>
 8002a78:	00820074 	movhi	r2,2049
 8002a7c:	10963104 	addi	r2,r2,22724
 8002a80:	11000017 	ldw	r4,0(r2)
 8002a84:	20c0012e 	bgeu	r4,r3,8002a8c <_malloc_r+0x454>
 8002a88:	10c00015 	stw	r3,0(r2)
 8002a8c:	00820074 	movhi	r2,2049
 8002a90:	10963004 	addi	r2,r2,22720
 8002a94:	11000017 	ldw	r4,0(r2)
 8002a98:	9c000217 	ldw	r16,8(r19)
 8002a9c:	20c0012e 	bgeu	r4,r3,8002aa4 <_malloc_r+0x46c>
 8002aa0:	10c00015 	stw	r3,0(r2)
 8002aa4:	80c00117 	ldw	r3,4(r16)
 8002aa8:	00bfff04 	movi	r2,-4
 8002aac:	1886703a 	and	r3,r3,r2
 8002ab0:	1c45c83a 	sub	r2,r3,r17
 8002ab4:	1c400236 	bltu	r3,r17,8002ac0 <_malloc_r+0x488>
 8002ab8:	00c003c4 	movi	r3,15
 8002abc:	18800416 	blt	r3,r2,8002ad0 <_malloc_r+0x498>
 8002ac0:	9009883a 	mov	r4,r18
 8002ac4:	800ed740 	call	800ed74 <__malloc_unlock>
 8002ac8:	0005883a 	mov	r2,zero
 8002acc:	003f0706 	br	80026ec <__alt_data_end+0xfc0026ec>
 8002ad0:	88c00054 	ori	r3,r17,1
 8002ad4:	80c00115 	stw	r3,4(r16)
 8002ad8:	8463883a 	add	r17,r16,r17
 8002adc:	10800054 	ori	r2,r2,1
 8002ae0:	9c400215 	stw	r17,8(r19)
 8002ae4:	88800115 	stw	r2,4(r17)
 8002ae8:	9009883a 	mov	r4,r18
 8002aec:	800ed740 	call	800ed74 <__malloc_unlock>
 8002af0:	80800204 	addi	r2,r16,8
 8002af4:	003efd06 	br	80026ec <__alt_data_end+0xfc0026ec>
 8002af8:	00800504 	movi	r2,20
 8002afc:	10c0482e 	bgeu	r2,r3,8002c20 <_malloc_r+0x5e8>
 8002b00:	00801504 	movi	r2,84
 8002b04:	10c06836 	bltu	r2,r3,8002ca8 <_malloc_r+0x670>
 8002b08:	8806d33a 	srli	r3,r17,12
 8002b0c:	19c01b84 	addi	r7,r3,110
 8002b10:	39cb883a 	add	r5,r7,r7
 8002b14:	003f0c06 	br	8002748 <__alt_data_end+0xfc002748>
 8002b18:	3804d27a 	srli	r2,r7,9
 8002b1c:	01000104 	movi	r4,4
 8002b20:	2080422e 	bgeu	r4,r2,8002c2c <_malloc_r+0x5f4>
 8002b24:	01000504 	movi	r4,20
 8002b28:	20807c36 	bltu	r4,r2,8002d1c <_malloc_r+0x6e4>
 8002b2c:	110016c4 	addi	r4,r2,91
 8002b30:	210b883a 	add	r5,r4,r4
 8002b34:	294b883a 	add	r5,r5,r5
 8002b38:	294b883a 	add	r5,r5,r5
 8002b3c:	994b883a 	add	r5,r19,r5
 8002b40:	28800217 	ldw	r2,8(r5)
 8002b44:	02020074 	movhi	r8,2049
 8002b48:	42095e04 	addi	r8,r8,9592
 8002b4c:	11406326 	beq	r2,r5,8002cdc <_malloc_r+0x6a4>
 8002b50:	01bfff04 	movi	r6,-4
 8002b54:	11000117 	ldw	r4,4(r2)
 8002b58:	2188703a 	and	r4,r4,r6
 8002b5c:	3900022e 	bgeu	r7,r4,8002b68 <_malloc_r+0x530>
 8002b60:	10800217 	ldw	r2,8(r2)
 8002b64:	28bffb1e 	bne	r5,r2,8002b54 <__alt_data_end+0xfc002b54>
 8002b68:	11800317 	ldw	r6,12(r2)
 8002b6c:	99000117 	ldw	r4,4(r19)
 8002b70:	81800315 	stw	r6,12(r16)
 8002b74:	80800215 	stw	r2,8(r16)
 8002b78:	34000215 	stw	r16,8(r6)
 8002b7c:	14000315 	stw	r16,12(r2)
 8002b80:	003f2706 	br	8002820 <__alt_data_end+0xfc002820>
 8002b84:	88c00054 	ori	r3,r17,1
 8002b88:	80c00115 	stw	r3,4(r16)
 8002b8c:	8463883a 	add	r17,r16,r17
 8002b90:	34400515 	stw	r17,20(r6)
 8002b94:	34400415 	stw	r17,16(r6)
 8002b98:	10c00054 	ori	r3,r2,1
 8002b9c:	8a400315 	stw	r9,12(r17)
 8002ba0:	8a400215 	stw	r9,8(r17)
 8002ba4:	88c00115 	stw	r3,4(r17)
 8002ba8:	88a3883a 	add	r17,r17,r2
 8002bac:	88800015 	stw	r2,0(r17)
 8002bb0:	9009883a 	mov	r4,r18
 8002bb4:	800ed740 	call	800ed74 <__malloc_unlock>
 8002bb8:	80800204 	addi	r2,r16,8
 8002bbc:	003ecb06 	br	80026ec <__alt_data_end+0xfc0026ec>
 8002bc0:	31000117 	ldw	r4,4(r6)
 8002bc4:	003f1606 	br	8002820 <__alt_data_end+0xfc002820>
 8002bc8:	63000044 	addi	r12,r12,1
 8002bcc:	608000cc 	andi	r2,r12,3
 8002bd0:	5ac00204 	addi	r11,r11,8
 8002bd4:	103f2a1e 	bne	r2,zero,8002880 <__alt_data_end+0xfc002880>
 8002bd8:	00002106 	br	8002c60 <_malloc_r+0x628>
 8002bdc:	80800204 	addi	r2,r16,8
 8002be0:	84000517 	ldw	r16,20(r16)
 8002be4:	143eb31e 	bne	r2,r16,80026b4 <__alt_data_end+0xfc0026b4>
 8002be8:	18c00084 	addi	r3,r3,2
 8002bec:	003eec06 	br	80027a0 <__alt_data_end+0xfc0027a0>
 8002bf0:	8085883a 	add	r2,r16,r2
 8002bf4:	10c00117 	ldw	r3,4(r2)
 8002bf8:	81000317 	ldw	r4,12(r16)
 8002bfc:	81400217 	ldw	r5,8(r16)
 8002c00:	18c00054 	ori	r3,r3,1
 8002c04:	10c00115 	stw	r3,4(r2)
 8002c08:	29000315 	stw	r4,12(r5)
 8002c0c:	21400215 	stw	r5,8(r4)
 8002c10:	9009883a 	mov	r4,r18
 8002c14:	800ed740 	call	800ed74 <__malloc_unlock>
 8002c18:	80800204 	addi	r2,r16,8
 8002c1c:	003eb306 	br	80026ec <__alt_data_end+0xfc0026ec>
 8002c20:	19c016c4 	addi	r7,r3,91
 8002c24:	39cb883a 	add	r5,r7,r7
 8002c28:	003ec706 	br	8002748 <__alt_data_end+0xfc002748>
 8002c2c:	3804d1ba 	srli	r2,r7,6
 8002c30:	11000e04 	addi	r4,r2,56
 8002c34:	210b883a 	add	r5,r4,r4
 8002c38:	003fbe06 	br	8002b34 <__alt_data_end+0xfc002b34>
 8002c3c:	84ff5d26 	beq	r16,r19,80029b4 <__alt_data_end+0xfc0029b4>
 8002c40:	9c000217 	ldw	r16,8(r19)
 8002c44:	00bfff04 	movi	r2,-4
 8002c48:	80c00117 	ldw	r3,4(r16)
 8002c4c:	1886703a 	and	r3,r3,r2
 8002c50:	003f9706 	br	8002ab0 <__alt_data_end+0xfc002ab0>
 8002c54:	52800017 	ldw	r10,0(r10)
 8002c58:	18ffffc4 	addi	r3,r3,-1
 8002c5c:	50805c1e 	bne	r10,r2,8002dd0 <_malloc_r+0x798>
 8002c60:	190000cc 	andi	r4,r3,3
 8002c64:	50bffe04 	addi	r2,r10,-8
 8002c68:	203ffa1e 	bne	r4,zero,8002c54 <__alt_data_end+0xfc002c54>
 8002c6c:	98800117 	ldw	r2,4(r19)
 8002c70:	0146303a 	nor	r3,zero,r5
 8002c74:	1884703a 	and	r2,r3,r2
 8002c78:	98800115 	stw	r2,4(r19)
 8002c7c:	294b883a 	add	r5,r5,r5
 8002c80:	117f2e36 	bltu	r2,r5,800293c <__alt_data_end+0xfc00293c>
 8002c84:	283f2d26 	beq	r5,zero,800293c <__alt_data_end+0xfc00293c>
 8002c88:	1146703a 	and	r3,r2,r5
 8002c8c:	1800521e 	bne	r3,zero,8002dd8 <_malloc_r+0x7a0>
 8002c90:	6007883a 	mov	r3,r12
 8002c94:	294b883a 	add	r5,r5,r5
 8002c98:	1148703a 	and	r4,r2,r5
 8002c9c:	18c00104 	addi	r3,r3,4
 8002ca0:	203ffc26 	beq	r4,zero,8002c94 <__alt_data_end+0xfc002c94>
 8002ca4:	003ef006 	br	8002868 <__alt_data_end+0xfc002868>
 8002ca8:	00805504 	movi	r2,340
 8002cac:	10c01336 	bltu	r2,r3,8002cfc <_malloc_r+0x6c4>
 8002cb0:	8806d3fa 	srli	r3,r17,15
 8002cb4:	19c01dc4 	addi	r7,r3,119
 8002cb8:	39cb883a 	add	r5,r7,r7
 8002cbc:	003ea206 	br	8002748 <__alt_data_end+0xfc002748>
 8002cc0:	00c40004 	movi	r3,4096
 8002cc4:	003f4d06 	br	80029fc <__alt_data_end+0xfc0029fc>
 8002cc8:	00800044 	movi	r2,1
 8002ccc:	a0800115 	stw	r2,4(r20)
 8002cd0:	a021883a 	mov	r16,r20
 8002cd4:	0007883a 	mov	r3,zero
 8002cd8:	003f7506 	br	8002ab0 <__alt_data_end+0xfc002ab0>
 8002cdc:	200bd0ba 	srai	r5,r4,2
 8002ce0:	01800044 	movi	r6,1
 8002ce4:	41000117 	ldw	r4,4(r8)
 8002ce8:	314a983a 	sll	r5,r6,r5
 8002cec:	100d883a 	mov	r6,r2
 8002cf0:	2908b03a 	or	r4,r5,r4
 8002cf4:	41000115 	stw	r4,4(r8)
 8002cf8:	003f9d06 	br	8002b70 <__alt_data_end+0xfc002b70>
 8002cfc:	00815504 	movi	r2,1364
 8002d00:	10c01336 	bltu	r2,r3,8002d50 <_malloc_r+0x718>
 8002d04:	8806d4ba 	srli	r3,r17,18
 8002d08:	19c01f04 	addi	r7,r3,124
 8002d0c:	39cb883a 	add	r5,r7,r7
 8002d10:	003e8d06 	br	8002748 <__alt_data_end+0xfc002748>
 8002d14:	ad400404 	addi	r21,r21,16
 8002d18:	003f1d06 	br	8002990 <__alt_data_end+0xfc002990>
 8002d1c:	01001504 	movi	r4,84
 8002d20:	20801c36 	bltu	r4,r2,8002d94 <_malloc_r+0x75c>
 8002d24:	3804d33a 	srli	r2,r7,12
 8002d28:	11001b84 	addi	r4,r2,110
 8002d2c:	210b883a 	add	r5,r4,r4
 8002d30:	003f8006 	br	8002b34 <__alt_data_end+0xfc002b34>
 8002d34:	3083ffcc 	andi	r2,r6,4095
 8002d38:	103f241e 	bne	r2,zero,80029cc <__alt_data_end+0xfc0029cc>
 8002d3c:	99000217 	ldw	r4,8(r19)
 8002d40:	ad85883a 	add	r2,r21,r22
 8002d44:	10800054 	ori	r2,r2,1
 8002d48:	20800115 	stw	r2,4(r4)
 8002d4c:	003f4a06 	br	8002a78 <__alt_data_end+0xfc002a78>
 8002d50:	01403f04 	movi	r5,252
 8002d54:	01c01f84 	movi	r7,126
 8002d58:	003e7b06 	br	8002748 <__alt_data_end+0xfc002748>
 8002d5c:	00c00044 	movi	r3,1
 8002d60:	002b883a 	mov	r21,zero
 8002d64:	003f3006 	br	8002a28 <__alt_data_end+0xfc002a28>
 8002d68:	00820074 	movhi	r2,2049
 8002d6c:	108f3304 	addi	r2,r2,15564
 8002d70:	15000015 	stw	r20,0(r2)
 8002d74:	003f1b06 	br	80029e4 <__alt_data_end+0xfc0029e4>
 8002d78:	9009883a 	mov	r4,r18
 8002d7c:	81400204 	addi	r5,r16,8
 8002d80:	800192c0 	call	800192c <_free_r>
 8002d84:	00820074 	movhi	r2,2049
 8002d88:	10963c04 	addi	r2,r2,22768
 8002d8c:	10c00017 	ldw	r3,0(r2)
 8002d90:	003f3906 	br	8002a78 <__alt_data_end+0xfc002a78>
 8002d94:	01005504 	movi	r4,340
 8002d98:	20800436 	bltu	r4,r2,8002dac <_malloc_r+0x774>
 8002d9c:	3804d3fa 	srli	r2,r7,15
 8002da0:	11001dc4 	addi	r4,r2,119
 8002da4:	210b883a 	add	r5,r4,r4
 8002da8:	003f6206 	br	8002b34 <__alt_data_end+0xfc002b34>
 8002dac:	01015504 	movi	r4,1364
 8002db0:	20800436 	bltu	r4,r2,8002dc4 <_malloc_r+0x78c>
 8002db4:	3804d4ba 	srli	r2,r7,18
 8002db8:	11001f04 	addi	r4,r2,124
 8002dbc:	210b883a 	add	r5,r4,r4
 8002dc0:	003f5c06 	br	8002b34 <__alt_data_end+0xfc002b34>
 8002dc4:	01403f04 	movi	r5,252
 8002dc8:	01001f84 	movi	r4,126
 8002dcc:	003f5906 	br	8002b34 <__alt_data_end+0xfc002b34>
 8002dd0:	98800117 	ldw	r2,4(r19)
 8002dd4:	003fa906 	br	8002c7c <__alt_data_end+0xfc002c7c>
 8002dd8:	6007883a 	mov	r3,r12
 8002ddc:	003ea206 	br	8002868 <__alt_data_end+0xfc002868>

08002de0 <memset>:
 8002de0:	20c000cc 	andi	r3,r4,3
 8002de4:	2005883a 	mov	r2,r4
 8002de8:	18004326 	beq	r3,zero,8002ef8 <memset+0x118>
 8002dec:	31ffffc4 	addi	r7,r6,-1
 8002df0:	30004026 	beq	r6,zero,8002ef4 <memset+0x114>
 8002df4:	2813883a 	mov	r9,r5
 8002df8:	200d883a 	mov	r6,r4
 8002dfc:	2007883a 	mov	r3,r4
 8002e00:	00000406 	br	8002e14 <memset+0x34>
 8002e04:	3a3fffc4 	addi	r8,r7,-1
 8002e08:	31800044 	addi	r6,r6,1
 8002e0c:	38003926 	beq	r7,zero,8002ef4 <memset+0x114>
 8002e10:	400f883a 	mov	r7,r8
 8002e14:	18c00044 	addi	r3,r3,1
 8002e18:	32400005 	stb	r9,0(r6)
 8002e1c:	1a0000cc 	andi	r8,r3,3
 8002e20:	403ff81e 	bne	r8,zero,8002e04 <__alt_data_end+0xfc002e04>
 8002e24:	010000c4 	movi	r4,3
 8002e28:	21c02d2e 	bgeu	r4,r7,8002ee0 <memset+0x100>
 8002e2c:	29803fcc 	andi	r6,r5,255
 8002e30:	3008923a 	slli	r4,r6,8
 8002e34:	218cb03a 	or	r6,r4,r6
 8002e38:	3008943a 	slli	r4,r6,16
 8002e3c:	218cb03a 	or	r6,r4,r6
 8002e40:	010003c4 	movi	r4,15
 8002e44:	21c0182e 	bgeu	r4,r7,8002ea8 <memset+0xc8>
 8002e48:	3b3ffc04 	addi	r12,r7,-16
 8002e4c:	6018d13a 	srli	r12,r12,4
 8002e50:	1a000104 	addi	r8,r3,4
 8002e54:	1ac00204 	addi	r11,r3,8
 8002e58:	6008913a 	slli	r4,r12,4
 8002e5c:	1a800304 	addi	r10,r3,12
 8002e60:	1813883a 	mov	r9,r3
 8002e64:	21000504 	addi	r4,r4,20
 8002e68:	1909883a 	add	r4,r3,r4
 8002e6c:	49800015 	stw	r6,0(r9)
 8002e70:	41800015 	stw	r6,0(r8)
 8002e74:	59800015 	stw	r6,0(r11)
 8002e78:	51800015 	stw	r6,0(r10)
 8002e7c:	42000404 	addi	r8,r8,16
 8002e80:	4a400404 	addi	r9,r9,16
 8002e84:	5ac00404 	addi	r11,r11,16
 8002e88:	52800404 	addi	r10,r10,16
 8002e8c:	413ff71e 	bne	r8,r4,8002e6c <__alt_data_end+0xfc002e6c>
 8002e90:	63000044 	addi	r12,r12,1
 8002e94:	6018913a 	slli	r12,r12,4
 8002e98:	39c003cc 	andi	r7,r7,15
 8002e9c:	010000c4 	movi	r4,3
 8002ea0:	1b07883a 	add	r3,r3,r12
 8002ea4:	21c00e2e 	bgeu	r4,r7,8002ee0 <memset+0x100>
 8002ea8:	1813883a 	mov	r9,r3
 8002eac:	3811883a 	mov	r8,r7
 8002eb0:	010000c4 	movi	r4,3
 8002eb4:	49800015 	stw	r6,0(r9)
 8002eb8:	423fff04 	addi	r8,r8,-4
 8002ebc:	4a400104 	addi	r9,r9,4
 8002ec0:	223ffc36 	bltu	r4,r8,8002eb4 <__alt_data_end+0xfc002eb4>
 8002ec4:	393fff04 	addi	r4,r7,-4
 8002ec8:	2008d0ba 	srli	r4,r4,2
 8002ecc:	39c000cc 	andi	r7,r7,3
 8002ed0:	21000044 	addi	r4,r4,1
 8002ed4:	2109883a 	add	r4,r4,r4
 8002ed8:	2109883a 	add	r4,r4,r4
 8002edc:	1907883a 	add	r3,r3,r4
 8002ee0:	38000426 	beq	r7,zero,8002ef4 <memset+0x114>
 8002ee4:	19cf883a 	add	r7,r3,r7
 8002ee8:	19400005 	stb	r5,0(r3)
 8002eec:	18c00044 	addi	r3,r3,1
 8002ef0:	19fffd1e 	bne	r3,r7,8002ee8 <__alt_data_end+0xfc002ee8>
 8002ef4:	f800283a 	ret
 8002ef8:	2007883a 	mov	r3,r4
 8002efc:	300f883a 	mov	r7,r6
 8002f00:	003fc806 	br	8002e24 <__alt_data_end+0xfc002e24>

08002f04 <_open_r>:
 8002f04:	defffd04 	addi	sp,sp,-12
 8002f08:	dc000015 	stw	r16,0(sp)
 8002f0c:	04020074 	movhi	r16,2049
 8002f10:	dc400115 	stw	r17,4(sp)
 8002f14:	84162f04 	addi	r16,r16,22716
 8002f18:	2023883a 	mov	r17,r4
 8002f1c:	2809883a 	mov	r4,r5
 8002f20:	300b883a 	mov	r5,r6
 8002f24:	380d883a 	mov	r6,r7
 8002f28:	dfc00215 	stw	ra,8(sp)
 8002f2c:	80000015 	stw	zero,0(r16)
 8002f30:	800eed80 	call	800eed8 <open>
 8002f34:	00ffffc4 	movi	r3,-1
 8002f38:	10c00526 	beq	r2,r3,8002f50 <_open_r+0x4c>
 8002f3c:	dfc00217 	ldw	ra,8(sp)
 8002f40:	dc400117 	ldw	r17,4(sp)
 8002f44:	dc000017 	ldw	r16,0(sp)
 8002f48:	dec00304 	addi	sp,sp,12
 8002f4c:	f800283a 	ret
 8002f50:	80c00017 	ldw	r3,0(r16)
 8002f54:	183ff926 	beq	r3,zero,8002f3c <__alt_data_end+0xfc002f3c>
 8002f58:	88c00015 	stw	r3,0(r17)
 8002f5c:	003ff706 	br	8002f3c <__alt_data_end+0xfc002f3c>

08002f60 <_printf_r>:
 8002f60:	defffd04 	addi	sp,sp,-12
 8002f64:	dfc00015 	stw	ra,0(sp)
 8002f68:	d9800115 	stw	r6,4(sp)
 8002f6c:	d9c00215 	stw	r7,8(sp)
 8002f70:	280d883a 	mov	r6,r5
 8002f74:	21400217 	ldw	r5,8(r4)
 8002f78:	d9c00104 	addi	r7,sp,4
 8002f7c:	80038540 	call	8003854 <___vfprintf_internal_r>
 8002f80:	dfc00017 	ldw	ra,0(sp)
 8002f84:	dec00304 	addi	sp,sp,12
 8002f88:	f800283a 	ret

08002f8c <printf>:
 8002f8c:	defffc04 	addi	sp,sp,-16
 8002f90:	dfc00015 	stw	ra,0(sp)
 8002f94:	d9400115 	stw	r5,4(sp)
 8002f98:	d9800215 	stw	r6,8(sp)
 8002f9c:	d9c00315 	stw	r7,12(sp)
 8002fa0:	00820074 	movhi	r2,2049
 8002fa4:	108f3204 	addi	r2,r2,15560
 8002fa8:	10800017 	ldw	r2,0(r2)
 8002fac:	200b883a 	mov	r5,r4
 8002fb0:	d9800104 	addi	r6,sp,4
 8002fb4:	11000217 	ldw	r4,8(r2)
 8002fb8:	80059500 	call	8005950 <__vfprintf_internal>
 8002fbc:	dfc00017 	ldw	ra,0(sp)
 8002fc0:	dec00404 	addi	sp,sp,16
 8002fc4:	f800283a 	ret

08002fc8 <_puts_r>:
 8002fc8:	defff604 	addi	sp,sp,-40
 8002fcc:	dc000715 	stw	r16,28(sp)
 8002fd0:	2021883a 	mov	r16,r4
 8002fd4:	2809883a 	mov	r4,r5
 8002fd8:	dc400815 	stw	r17,32(sp)
 8002fdc:	dfc00915 	stw	ra,36(sp)
 8002fe0:	2823883a 	mov	r17,r5
 8002fe4:	80034700 	call	8003470 <strlen>
 8002fe8:	00c20074 	movhi	r3,2049
 8002fec:	18cf3204 	addi	r3,r3,15560
 8002ff0:	18c00017 	ldw	r3,0(r3)
 8002ff4:	11000044 	addi	r4,r2,1
 8002ff8:	d8800115 	stw	r2,4(sp)
 8002ffc:	18c00217 	ldw	r3,8(r3)
 8003000:	01420074 	movhi	r5,2049
 8003004:	2946f304 	addi	r5,r5,7116
 8003008:	1880030b 	ldhu	r2,12(r3)
 800300c:	d9400215 	stw	r5,8(sp)
 8003010:	d9000615 	stw	r4,24(sp)
 8003014:	01400044 	movi	r5,1
 8003018:	01000084 	movi	r4,2
 800301c:	d9000515 	stw	r4,20(sp)
 8003020:	dc400015 	stw	r17,0(sp)
 8003024:	d9400315 	stw	r5,12(sp)
 8003028:	dec00415 	stw	sp,16(sp)
 800302c:	1108000c 	andi	r4,r2,8192
 8003030:	2000061e 	bne	r4,zero,800304c <_puts_r+0x84>
 8003034:	19401917 	ldw	r5,100(r3)
 8003038:	0137ffc4 	movi	r4,-8193
 800303c:	10880014 	ori	r2,r2,8192
 8003040:	2908703a 	and	r4,r5,r4
 8003044:	1880030d 	sth	r2,12(r3)
 8003048:	19001915 	stw	r4,100(r3)
 800304c:	81400217 	ldw	r5,8(r16)
 8003050:	8009883a 	mov	r4,r16
 8003054:	d9800404 	addi	r6,sp,16
 8003058:	800753c0 	call	800753c <__sfvwrite_r>
 800305c:	1000061e 	bne	r2,zero,8003078 <_puts_r+0xb0>
 8003060:	00800284 	movi	r2,10
 8003064:	dfc00917 	ldw	ra,36(sp)
 8003068:	dc400817 	ldw	r17,32(sp)
 800306c:	dc000717 	ldw	r16,28(sp)
 8003070:	dec00a04 	addi	sp,sp,40
 8003074:	f800283a 	ret
 8003078:	00bfffc4 	movi	r2,-1
 800307c:	003ff906 	br	8003064 <__alt_data_end+0xfc003064>

08003080 <puts>:
 8003080:	00820074 	movhi	r2,2049
 8003084:	108f3204 	addi	r2,r2,15560
 8003088:	200b883a 	mov	r5,r4
 800308c:	11000017 	ldw	r4,0(r2)
 8003090:	8002fc81 	jmpi	8002fc8 <_puts_r>

08003094 <lflush>:
 8003094:	2080030b 	ldhu	r2,12(r4)
 8003098:	00c00244 	movi	r3,9
 800309c:	1080024c 	andi	r2,r2,9
 80030a0:	10c00226 	beq	r2,r3,80030ac <lflush+0x18>
 80030a4:	0005883a 	mov	r2,zero
 80030a8:	f800283a 	ret
 80030ac:	80013181 	jmpi	8001318 <fflush>

080030b0 <__srefill_r>:
 80030b0:	defffd04 	addi	sp,sp,-12
 80030b4:	dc400115 	stw	r17,4(sp)
 80030b8:	dc000015 	stw	r16,0(sp)
 80030bc:	dfc00215 	stw	ra,8(sp)
 80030c0:	2023883a 	mov	r17,r4
 80030c4:	2821883a 	mov	r16,r5
 80030c8:	20000226 	beq	r4,zero,80030d4 <__srefill_r+0x24>
 80030cc:	20800e17 	ldw	r2,56(r4)
 80030d0:	10003b26 	beq	r2,zero,80031c0 <__srefill_r+0x110>
 80030d4:	80c0030b 	ldhu	r3,12(r16)
 80030d8:	1908000c 	andi	r4,r3,8192
 80030dc:	1805883a 	mov	r2,r3
 80030e0:	2000071e 	bne	r4,zero,8003100 <__srefill_r+0x50>
 80030e4:	81001917 	ldw	r4,100(r16)
 80030e8:	18880014 	ori	r2,r3,8192
 80030ec:	00f7ffc4 	movi	r3,-8193
 80030f0:	20c8703a 	and	r4,r4,r3
 80030f4:	8080030d 	sth	r2,12(r16)
 80030f8:	1007883a 	mov	r3,r2
 80030fc:	81001915 	stw	r4,100(r16)
 8003100:	80000115 	stw	zero,4(r16)
 8003104:	1100080c 	andi	r4,r2,32
 8003108:	20004d1e 	bne	r4,zero,8003240 <__srefill_r+0x190>
 800310c:	1100010c 	andi	r4,r2,4
 8003110:	20001e26 	beq	r4,zero,800318c <__srefill_r+0xdc>
 8003114:	81400c17 	ldw	r5,48(r16)
 8003118:	28000826 	beq	r5,zero,800313c <__srefill_r+0x8c>
 800311c:	80801004 	addi	r2,r16,64
 8003120:	28800226 	beq	r5,r2,800312c <__srefill_r+0x7c>
 8003124:	8809883a 	mov	r4,r17
 8003128:	800192c0 	call	800192c <_free_r>
 800312c:	80800f17 	ldw	r2,60(r16)
 8003130:	80000c15 	stw	zero,48(r16)
 8003134:	80800115 	stw	r2,4(r16)
 8003138:	10002f1e 	bne	r2,zero,80031f8 <__srefill_r+0x148>
 800313c:	80800417 	ldw	r2,16(r16)
 8003140:	10004126 	beq	r2,zero,8003248 <__srefill_r+0x198>
 8003144:	8080030b 	ldhu	r2,12(r16)
 8003148:	108000cc 	andi	r2,r2,3
 800314c:	10001e1e 	bne	r2,zero,80031c8 <__srefill_r+0x118>
 8003150:	81800417 	ldw	r6,16(r16)
 8003154:	80800817 	ldw	r2,32(r16)
 8003158:	81400717 	ldw	r5,28(r16)
 800315c:	81c00517 	ldw	r7,20(r16)
 8003160:	81800015 	stw	r6,0(r16)
 8003164:	8809883a 	mov	r4,r17
 8003168:	103ee83a 	callr	r2
 800316c:	80800115 	stw	r2,4(r16)
 8003170:	00800d0e 	bge	zero,r2,80031a8 <__srefill_r+0xf8>
 8003174:	0005883a 	mov	r2,zero
 8003178:	dfc00217 	ldw	ra,8(sp)
 800317c:	dc400117 	ldw	r17,4(sp)
 8003180:	dc000017 	ldw	r16,0(sp)
 8003184:	dec00304 	addi	sp,sp,12
 8003188:	f800283a 	ret
 800318c:	1100040c 	andi	r4,r2,16
 8003190:	20002726 	beq	r4,zero,8003230 <__srefill_r+0x180>
 8003194:	1080020c 	andi	r2,r2,8
 8003198:	10001b1e 	bne	r2,zero,8003208 <__srefill_r+0x158>
 800319c:	18c00114 	ori	r3,r3,4
 80031a0:	80c0030d 	sth	r3,12(r16)
 80031a4:	003fe506 	br	800313c <__alt_data_end+0xfc00313c>
 80031a8:	80c0030b 	ldhu	r3,12(r16)
 80031ac:	10000d1e 	bne	r2,zero,80031e4 <__srefill_r+0x134>
 80031b0:	18c00814 	ori	r3,r3,32
 80031b4:	00bfffc4 	movi	r2,-1
 80031b8:	80c0030d 	sth	r3,12(r16)
 80031bc:	003fee06 	br	8003178 <__alt_data_end+0xfc003178>
 80031c0:	80016ac0 	call	80016ac <__sinit>
 80031c4:	003fc306 	br	80030d4 <__alt_data_end+0xfc0030d4>
 80031c8:	00820074 	movhi	r2,2049
 80031cc:	108f3104 	addi	r2,r2,15556
 80031d0:	11000017 	ldw	r4,0(r2)
 80031d4:	01420034 	movhi	r5,2048
 80031d8:	294c2504 	addi	r5,r5,12436
 80031dc:	80020ec0 	call	80020ec <_fwalk>
 80031e0:	003fdb06 	br	8003150 <__alt_data_end+0xfc003150>
 80031e4:	18c01014 	ori	r3,r3,64
 80031e8:	80000115 	stw	zero,4(r16)
 80031ec:	00bfffc4 	movi	r2,-1
 80031f0:	80c0030d 	sth	r3,12(r16)
 80031f4:	003fe006 	br	8003178 <__alt_data_end+0xfc003178>
 80031f8:	80c00e17 	ldw	r3,56(r16)
 80031fc:	0005883a 	mov	r2,zero
 8003200:	80c00015 	stw	r3,0(r16)
 8003204:	003fdc06 	br	8003178 <__alt_data_end+0xfc003178>
 8003208:	8809883a 	mov	r4,r17
 800320c:	800b883a 	mov	r5,r16
 8003210:	80010f00 	call	80010f0 <_fflush_r>
 8003214:	10000a1e 	bne	r2,zero,8003240 <__srefill_r+0x190>
 8003218:	8080030b 	ldhu	r2,12(r16)
 800321c:	00fffdc4 	movi	r3,-9
 8003220:	80000215 	stw	zero,8(r16)
 8003224:	1886703a 	and	r3,r3,r2
 8003228:	80000615 	stw	zero,24(r16)
 800322c:	003fdb06 	br	800319c <__alt_data_end+0xfc00319c>
 8003230:	00800244 	movi	r2,9
 8003234:	88800015 	stw	r2,0(r17)
 8003238:	18c01014 	ori	r3,r3,64
 800323c:	80c0030d 	sth	r3,12(r16)
 8003240:	00bfffc4 	movi	r2,-1
 8003244:	003fcc06 	br	8003178 <__alt_data_end+0xfc003178>
 8003248:	8809883a 	mov	r4,r17
 800324c:	800b883a 	mov	r5,r16
 8003250:	80024800 	call	8002480 <__smakebuf_r>
 8003254:	003fbb06 	br	8003144 <__alt_data_end+0xfc003144>

08003258 <__srget_r>:
 8003258:	defffd04 	addi	sp,sp,-12
 800325c:	dc400115 	stw	r17,4(sp)
 8003260:	dc000015 	stw	r16,0(sp)
 8003264:	dfc00215 	stw	ra,8(sp)
 8003268:	2023883a 	mov	r17,r4
 800326c:	2821883a 	mov	r16,r5
 8003270:	20000226 	beq	r4,zero,800327c <__srget_r+0x24>
 8003274:	20800e17 	ldw	r2,56(r4)
 8003278:	10001026 	beq	r2,zero,80032bc <__srget_r+0x64>
 800327c:	8809883a 	mov	r4,r17
 8003280:	800b883a 	mov	r5,r16
 8003284:	80030b00 	call	80030b0 <__srefill_r>
 8003288:	10000e1e 	bne	r2,zero,80032c4 <__srget_r+0x6c>
 800328c:	80c00017 	ldw	r3,0(r16)
 8003290:	80800117 	ldw	r2,4(r16)
 8003294:	19000044 	addi	r4,r3,1
 8003298:	10bfffc4 	addi	r2,r2,-1
 800329c:	80800115 	stw	r2,4(r16)
 80032a0:	81000015 	stw	r4,0(r16)
 80032a4:	18800003 	ldbu	r2,0(r3)
 80032a8:	dfc00217 	ldw	ra,8(sp)
 80032ac:	dc400117 	ldw	r17,4(sp)
 80032b0:	dc000017 	ldw	r16,0(sp)
 80032b4:	dec00304 	addi	sp,sp,12
 80032b8:	f800283a 	ret
 80032bc:	80016ac0 	call	80016ac <__sinit>
 80032c0:	003fee06 	br	800327c <__alt_data_end+0xfc00327c>
 80032c4:	00bfffc4 	movi	r2,-1
 80032c8:	003ff706 	br	80032a8 <__alt_data_end+0xfc0032a8>

080032cc <__srget>:
 80032cc:	00820074 	movhi	r2,2049
 80032d0:	108f3204 	addi	r2,r2,15560
 80032d4:	200b883a 	mov	r5,r4
 80032d8:	11000017 	ldw	r4,0(r2)
 80032dc:	80032581 	jmpi	8003258 <__srget_r>

080032e0 <_sbrk_r>:
 80032e0:	defffd04 	addi	sp,sp,-12
 80032e4:	dc000015 	stw	r16,0(sp)
 80032e8:	04020074 	movhi	r16,2049
 80032ec:	dc400115 	stw	r17,4(sp)
 80032f0:	84162f04 	addi	r16,r16,22716
 80032f4:	2023883a 	mov	r17,r4
 80032f8:	2809883a 	mov	r4,r5
 80032fc:	dfc00215 	stw	ra,8(sp)
 8003300:	80000015 	stw	zero,0(r16)
 8003304:	800f20c0 	call	800f20c <sbrk>
 8003308:	00ffffc4 	movi	r3,-1
 800330c:	10c00526 	beq	r2,r3,8003324 <_sbrk_r+0x44>
 8003310:	dfc00217 	ldw	ra,8(sp)
 8003314:	dc400117 	ldw	r17,4(sp)
 8003318:	dc000017 	ldw	r16,0(sp)
 800331c:	dec00304 	addi	sp,sp,12
 8003320:	f800283a 	ret
 8003324:	80c00017 	ldw	r3,0(r16)
 8003328:	183ff926 	beq	r3,zero,8003310 <__alt_data_end+0xfc003310>
 800332c:	88c00015 	stw	r3,0(r17)
 8003330:	003ff706 	br	8003310 <__alt_data_end+0xfc003310>

08003334 <__sread>:
 8003334:	defffe04 	addi	sp,sp,-8
 8003338:	dc000015 	stw	r16,0(sp)
 800333c:	2821883a 	mov	r16,r5
 8003340:	2940038f 	ldh	r5,14(r5)
 8003344:	dfc00115 	stw	ra,4(sp)
 8003348:	8008f340 	call	8008f34 <_read_r>
 800334c:	10000716 	blt	r2,zero,800336c <__sread+0x38>
 8003350:	80c01417 	ldw	r3,80(r16)
 8003354:	1887883a 	add	r3,r3,r2
 8003358:	80c01415 	stw	r3,80(r16)
 800335c:	dfc00117 	ldw	ra,4(sp)
 8003360:	dc000017 	ldw	r16,0(sp)
 8003364:	dec00204 	addi	sp,sp,8
 8003368:	f800283a 	ret
 800336c:	80c0030b 	ldhu	r3,12(r16)
 8003370:	18fbffcc 	andi	r3,r3,61439
 8003374:	80c0030d 	sth	r3,12(r16)
 8003378:	dfc00117 	ldw	ra,4(sp)
 800337c:	dc000017 	ldw	r16,0(sp)
 8003380:	dec00204 	addi	sp,sp,8
 8003384:	f800283a 	ret

08003388 <__seofread>:
 8003388:	0005883a 	mov	r2,zero
 800338c:	f800283a 	ret

08003390 <__swrite>:
 8003390:	2880030b 	ldhu	r2,12(r5)
 8003394:	defffb04 	addi	sp,sp,-20
 8003398:	dcc00315 	stw	r19,12(sp)
 800339c:	dc800215 	stw	r18,8(sp)
 80033a0:	dc400115 	stw	r17,4(sp)
 80033a4:	dc000015 	stw	r16,0(sp)
 80033a8:	dfc00415 	stw	ra,16(sp)
 80033ac:	10c0400c 	andi	r3,r2,256
 80033b0:	2821883a 	mov	r16,r5
 80033b4:	2027883a 	mov	r19,r4
 80033b8:	3025883a 	mov	r18,r6
 80033bc:	3823883a 	mov	r17,r7
 80033c0:	18000526 	beq	r3,zero,80033d8 <__swrite+0x48>
 80033c4:	2940038f 	ldh	r5,14(r5)
 80033c8:	000d883a 	mov	r6,zero
 80033cc:	01c00084 	movi	r7,2
 80033d0:	8007b140 	call	8007b14 <_lseek_r>
 80033d4:	8080030b 	ldhu	r2,12(r16)
 80033d8:	8140038f 	ldh	r5,14(r16)
 80033dc:	10bbffcc 	andi	r2,r2,61439
 80033e0:	9809883a 	mov	r4,r19
 80033e4:	900d883a 	mov	r6,r18
 80033e8:	880f883a 	mov	r7,r17
 80033ec:	8080030d 	sth	r2,12(r16)
 80033f0:	dfc00417 	ldw	ra,16(sp)
 80033f4:	dcc00317 	ldw	r19,12(sp)
 80033f8:	dc800217 	ldw	r18,8(sp)
 80033fc:	dc400117 	ldw	r17,4(sp)
 8003400:	dc000017 	ldw	r16,0(sp)
 8003404:	dec00504 	addi	sp,sp,20
 8003408:	80059741 	jmpi	8005974 <_write_r>

0800340c <__sseek>:
 800340c:	defffe04 	addi	sp,sp,-8
 8003410:	dc000015 	stw	r16,0(sp)
 8003414:	2821883a 	mov	r16,r5
 8003418:	2940038f 	ldh	r5,14(r5)
 800341c:	dfc00115 	stw	ra,4(sp)
 8003420:	8007b140 	call	8007b14 <_lseek_r>
 8003424:	00ffffc4 	movi	r3,-1
 8003428:	10c00826 	beq	r2,r3,800344c <__sseek+0x40>
 800342c:	80c0030b 	ldhu	r3,12(r16)
 8003430:	80801415 	stw	r2,80(r16)
 8003434:	18c40014 	ori	r3,r3,4096
 8003438:	80c0030d 	sth	r3,12(r16)
 800343c:	dfc00117 	ldw	ra,4(sp)
 8003440:	dc000017 	ldw	r16,0(sp)
 8003444:	dec00204 	addi	sp,sp,8
 8003448:	f800283a 	ret
 800344c:	80c0030b 	ldhu	r3,12(r16)
 8003450:	18fbffcc 	andi	r3,r3,61439
 8003454:	80c0030d 	sth	r3,12(r16)
 8003458:	dfc00117 	ldw	ra,4(sp)
 800345c:	dc000017 	ldw	r16,0(sp)
 8003460:	dec00204 	addi	sp,sp,8
 8003464:	f800283a 	ret

08003468 <__sclose>:
 8003468:	2940038f 	ldh	r5,14(r5)
 800346c:	8005b001 	jmpi	8005b00 <_close_r>

08003470 <strlen>:
 8003470:	208000cc 	andi	r2,r4,3
 8003474:	10002026 	beq	r2,zero,80034f8 <strlen+0x88>
 8003478:	20800007 	ldb	r2,0(r4)
 800347c:	10002026 	beq	r2,zero,8003500 <strlen+0x90>
 8003480:	2005883a 	mov	r2,r4
 8003484:	00000206 	br	8003490 <strlen+0x20>
 8003488:	10c00007 	ldb	r3,0(r2)
 800348c:	18001826 	beq	r3,zero,80034f0 <strlen+0x80>
 8003490:	10800044 	addi	r2,r2,1
 8003494:	10c000cc 	andi	r3,r2,3
 8003498:	183ffb1e 	bne	r3,zero,8003488 <__alt_data_end+0xfc003488>
 800349c:	10c00017 	ldw	r3,0(r2)
 80034a0:	01ffbff4 	movhi	r7,65279
 80034a4:	39ffbfc4 	addi	r7,r7,-257
 80034a8:	00ca303a 	nor	r5,zero,r3
 80034ac:	01a02074 	movhi	r6,32897
 80034b0:	19c7883a 	add	r3,r3,r7
 80034b4:	31a02004 	addi	r6,r6,-32640
 80034b8:	1946703a 	and	r3,r3,r5
 80034bc:	1986703a 	and	r3,r3,r6
 80034c0:	1800091e 	bne	r3,zero,80034e8 <strlen+0x78>
 80034c4:	10800104 	addi	r2,r2,4
 80034c8:	10c00017 	ldw	r3,0(r2)
 80034cc:	19cb883a 	add	r5,r3,r7
 80034d0:	00c6303a 	nor	r3,zero,r3
 80034d4:	28c6703a 	and	r3,r5,r3
 80034d8:	1986703a 	and	r3,r3,r6
 80034dc:	183ff926 	beq	r3,zero,80034c4 <__alt_data_end+0xfc0034c4>
 80034e0:	00000106 	br	80034e8 <strlen+0x78>
 80034e4:	10800044 	addi	r2,r2,1
 80034e8:	10c00007 	ldb	r3,0(r2)
 80034ec:	183ffd1e 	bne	r3,zero,80034e4 <__alt_data_end+0xfc0034e4>
 80034f0:	1105c83a 	sub	r2,r2,r4
 80034f4:	f800283a 	ret
 80034f8:	2005883a 	mov	r2,r4
 80034fc:	003fe706 	br	800349c <__alt_data_end+0xfc00349c>
 8003500:	0005883a 	mov	r2,zero
 8003504:	f800283a 	ret

08003508 <strncmp>:
 8003508:	30002126 	beq	r6,zero,8003590 <strncmp+0x88>
 800350c:	2144b03a 	or	r2,r4,r5
 8003510:	108000cc 	andi	r2,r2,3
 8003514:	1000241e 	bne	r2,zero,80035a8 <strncmp+0xa0>
 8003518:	024000c4 	movi	r9,3
 800351c:	4980222e 	bgeu	r9,r6,80035a8 <strncmp+0xa0>
 8003520:	20800017 	ldw	r2,0(r4)
 8003524:	28c00017 	ldw	r3,0(r5)
 8003528:	10c01f1e 	bne	r2,r3,80035a8 <strncmp+0xa0>
 800352c:	31bfff04 	addi	r6,r6,-4
 8003530:	30001726 	beq	r6,zero,8003590 <strncmp+0x88>
 8003534:	02ffbff4 	movhi	r11,65279
 8003538:	5affbfc4 	addi	r11,r11,-257
 800353c:	0086303a 	nor	r3,zero,r2
 8003540:	02a02074 	movhi	r10,32897
 8003544:	12c5883a 	add	r2,r2,r11
 8003548:	52a02004 	addi	r10,r10,-32640
 800354c:	10c4703a 	and	r2,r2,r3
 8003550:	1284703a 	and	r2,r2,r10
 8003554:	10000226 	beq	r2,zero,8003560 <strncmp+0x58>
 8003558:	00000d06 	br	8003590 <strncmp+0x88>
 800355c:	10000c1e 	bne	r2,zero,8003590 <strncmp+0x88>
 8003560:	21000104 	addi	r4,r4,4
 8003564:	29400104 	addi	r5,r5,4
 8003568:	49800f2e 	bgeu	r9,r6,80035a8 <strncmp+0xa0>
 800356c:	20c00017 	ldw	r3,0(r4)
 8003570:	29c00017 	ldw	r7,0(r5)
 8003574:	1ad1883a 	add	r8,r3,r11
 8003578:	00c4303a 	nor	r2,zero,r3
 800357c:	4084703a 	and	r2,r8,r2
 8003580:	1284703a 	and	r2,r2,r10
 8003584:	19c0081e 	bne	r3,r7,80035a8 <strncmp+0xa0>
 8003588:	31bfff04 	addi	r6,r6,-4
 800358c:	303ff31e 	bne	r6,zero,800355c <__alt_data_end+0xfc00355c>
 8003590:	0005883a 	mov	r2,zero
 8003594:	f800283a 	ret
 8003598:	303ffd26 	beq	r6,zero,8003590 <__alt_data_end+0xfc003590>
 800359c:	103ffc26 	beq	r2,zero,8003590 <__alt_data_end+0xfc003590>
 80035a0:	21000044 	addi	r4,r4,1
 80035a4:	29400044 	addi	r5,r5,1
 80035a8:	20800007 	ldb	r2,0(r4)
 80035ac:	28c00007 	ldb	r3,0(r5)
 80035b0:	31bfffc4 	addi	r6,r6,-1
 80035b4:	10fff826 	beq	r2,r3,8003598 <__alt_data_end+0xfc003598>
 80035b8:	20800003 	ldbu	r2,0(r4)
 80035bc:	28c00003 	ldbu	r3,0(r5)
 80035c0:	10c5c83a 	sub	r2,r2,r3
 80035c4:	f800283a 	ret

080035c8 <_strtol_r>:
 80035c8:	00820074 	movhi	r2,2049
 80035cc:	defff204 	addi	sp,sp,-56
 80035d0:	108f3504 	addi	r2,r2,15572
 80035d4:	dd400915 	stw	r21,36(sp)
 80035d8:	15400017 	ldw	r21,0(r2)
 80035dc:	ddc00b15 	stw	r23,44(sp)
 80035e0:	dc000415 	stw	r16,16(sp)
 80035e4:	dfc00d15 	stw	ra,52(sp)
 80035e8:	df000c15 	stw	fp,48(sp)
 80035ec:	dd800a15 	stw	r22,40(sp)
 80035f0:	dd000815 	stw	r20,32(sp)
 80035f4:	dcc00715 	stw	r19,28(sp)
 80035f8:	dc800615 	stw	r18,24(sp)
 80035fc:	dc400515 	stw	r17,20(sp)
 8003600:	d9400215 	stw	r5,8(sp)
 8003604:	d9000315 	stw	r4,12(sp)
 8003608:	d9800015 	stw	r6,0(sp)
 800360c:	382f883a 	mov	r23,r7
 8003610:	2821883a 	mov	r16,r5
 8003614:	87000007 	ldb	fp,0(r16)
 8003618:	8007883a 	mov	r3,r16
 800361c:	84000044 	addi	r16,r16,1
 8003620:	af05883a 	add	r2,r21,fp
 8003624:	10800043 	ldbu	r2,1(r2)
 8003628:	1080020c 	andi	r2,r2,8
 800362c:	103ff91e 	bne	r2,zero,8003614 <__alt_data_end+0xfc003614>
 8003630:	00800b44 	movi	r2,45
 8003634:	e0805c26 	beq	fp,r2,80037a8 <_strtol_r+0x1e0>
 8003638:	00800ac4 	movi	r2,43
 800363c:	e0805e26 	beq	fp,r2,80037b8 <_strtol_r+0x1f0>
 8003640:	0027883a 	mov	r19,zero
 8003644:	b8000426 	beq	r23,zero,8003658 <_strtol_r+0x90>
 8003648:	00800404 	movi	r2,16
 800364c:	b8805e26 	beq	r23,r2,80037c8 <_strtol_r+0x200>
 8003650:	b825883a 	mov	r18,r23
 8003654:	00000406 	br	8003668 <_strtol_r+0xa0>
 8003658:	00800c04 	movi	r2,48
 800365c:	e0806926 	beq	fp,r2,8003804 <_strtol_r+0x23c>
 8003660:	05c00284 	movi	r23,10
 8003664:	b825883a 	mov	r18,r23
 8003668:	04600034 	movhi	r17,32768
 800366c:	8c7fffc4 	addi	r17,r17,-1
 8003670:	9c63883a 	add	r17,r19,r17
 8003674:	8809883a 	mov	r4,r17
 8003678:	900b883a 	mov	r5,r18
 800367c:	800bf480 	call	800bf48 <__umodsi3>
 8003680:	8809883a 	mov	r4,r17
 8003684:	900b883a 	mov	r5,r18
 8003688:	d8800115 	stw	r2,4(sp)
 800368c:	800bf400 	call	800bf40 <__udivsi3>
 8003690:	af07883a 	add	r3,r21,fp
 8003694:	18c00043 	ldbu	r3,1(r3)
 8003698:	1029883a 	mov	r20,r2
 800369c:	000d883a 	mov	r6,zero
 80036a0:	1940010c 	andi	r5,r3,4
 80036a4:	0009883a 	mov	r4,zero
 80036a8:	04400044 	movi	r17,1
 80036ac:	05bfffc4 	movi	r22,-1
 80036b0:	28000f26 	beq	r5,zero,80036f0 <_strtol_r+0x128>
 80036b4:	e73ff404 	addi	fp,fp,-48
 80036b8:	e5c0130e 	bge	fp,r23,8003708 <_strtol_r+0x140>
 80036bc:	35800626 	beq	r6,r22,80036d8 <_strtol_r+0x110>
 80036c0:	a1002b36 	bltu	r20,r4,8003770 <_strtol_r+0x1a8>
 80036c4:	25002826 	beq	r4,r20,8003768 <_strtol_r+0x1a0>
 80036c8:	900b883a 	mov	r5,r18
 80036cc:	800bf500 	call	800bf50 <__mulsi3>
 80036d0:	e089883a 	add	r4,fp,r2
 80036d4:	01800044 	movi	r6,1
 80036d8:	87000007 	ldb	fp,0(r16)
 80036dc:	84000044 	addi	r16,r16,1
 80036e0:	af07883a 	add	r3,r21,fp
 80036e4:	18c00043 	ldbu	r3,1(r3)
 80036e8:	1940010c 	andi	r5,r3,4
 80036ec:	283ff11e 	bne	r5,zero,80036b4 <__alt_data_end+0xfc0036b4>
 80036f0:	18c000cc 	andi	r3,r3,3
 80036f4:	18000426 	beq	r3,zero,8003708 <_strtol_r+0x140>
 80036f8:	1c401f26 	beq	r3,r17,8003778 <_strtol_r+0x1b0>
 80036fc:	00c015c4 	movi	r3,87
 8003700:	e0f9c83a 	sub	fp,fp,r3
 8003704:	e5ffed16 	blt	fp,r23,80036bc <__alt_data_end+0xfc0036bc>
 8003708:	00bfffc4 	movi	r2,-1
 800370c:	30801c26 	beq	r6,r2,8003780 <_strtol_r+0x1b8>
 8003710:	04c5c83a 	sub	r2,zero,r19
 8003714:	d8c00017 	ldw	r3,0(sp)
 8003718:	2084f03a 	xor	r2,r4,r2
 800371c:	14e7883a 	add	r19,r2,r19
 8003720:	9805883a 	mov	r2,r19
 8003724:	18000426 	beq	r3,zero,8003738 <_strtol_r+0x170>
 8003728:	30001d1e 	bne	r6,zero,80037a0 <_strtol_r+0x1d8>
 800372c:	dd400217 	ldw	r21,8(sp)
 8003730:	d8c00017 	ldw	r3,0(sp)
 8003734:	1d400015 	stw	r21,0(r3)
 8003738:	dfc00d17 	ldw	ra,52(sp)
 800373c:	df000c17 	ldw	fp,48(sp)
 8003740:	ddc00b17 	ldw	r23,44(sp)
 8003744:	dd800a17 	ldw	r22,40(sp)
 8003748:	dd400917 	ldw	r21,36(sp)
 800374c:	dd000817 	ldw	r20,32(sp)
 8003750:	dcc00717 	ldw	r19,28(sp)
 8003754:	dc800617 	ldw	r18,24(sp)
 8003758:	dc400517 	ldw	r17,20(sp)
 800375c:	dc000417 	ldw	r16,16(sp)
 8003760:	dec00e04 	addi	sp,sp,56
 8003764:	f800283a 	ret
 8003768:	d8c00117 	ldw	r3,4(sp)
 800376c:	1f3fd60e 	bge	r3,fp,80036c8 <__alt_data_end+0xfc0036c8>
 8003770:	01bfffc4 	movi	r6,-1
 8003774:	003fd806 	br	80036d8 <__alt_data_end+0xfc0036d8>
 8003778:	00c00dc4 	movi	r3,55
 800377c:	003fe006 	br	8003700 <__alt_data_end+0xfc003700>
 8003780:	d8c00317 	ldw	r3,12(sp)
 8003784:	00800884 	movi	r2,34
 8003788:	18800015 	stw	r2,0(r3)
 800378c:	d8c00017 	ldw	r3,0(sp)
 8003790:	00a00034 	movhi	r2,32768
 8003794:	10bfffc4 	addi	r2,r2,-1
 8003798:	9885883a 	add	r2,r19,r2
 800379c:	183fe626 	beq	r3,zero,8003738 <__alt_data_end+0xfc003738>
 80037a0:	857fffc4 	addi	r21,r16,-1
 80037a4:	003fe206 	br	8003730 <__alt_data_end+0xfc003730>
 80037a8:	1c000084 	addi	r16,r3,2
 80037ac:	1f000047 	ldb	fp,1(r3)
 80037b0:	04c00044 	movi	r19,1
 80037b4:	003fa306 	br	8003644 <__alt_data_end+0xfc003644>
 80037b8:	1c000084 	addi	r16,r3,2
 80037bc:	1f000047 	ldb	fp,1(r3)
 80037c0:	0027883a 	mov	r19,zero
 80037c4:	003f9f06 	br	8003644 <__alt_data_end+0xfc003644>
 80037c8:	00800c04 	movi	r2,48
 80037cc:	e0bfa01e 	bne	fp,r2,8003650 <__alt_data_end+0xfc003650>
 80037d0:	80c00003 	ldbu	r3,0(r16)
 80037d4:	00bff7c4 	movi	r2,-33
 80037d8:	1884703a 	and	r2,r3,r2
 80037dc:	10803fcc 	andi	r2,r2,255
 80037e0:	1080201c 	xori	r2,r2,128
 80037e4:	10bfe004 	addi	r2,r2,-128
 80037e8:	00c01604 	movi	r3,88
 80037ec:	10ff981e 	bne	r2,r3,8003650 <__alt_data_end+0xfc003650>
 80037f0:	04800404 	movi	r18,16
 80037f4:	87000047 	ldb	fp,1(r16)
 80037f8:	902f883a 	mov	r23,r18
 80037fc:	84000084 	addi	r16,r16,2
 8003800:	003f9906 	br	8003668 <__alt_data_end+0xfc003668>
 8003804:	80c00003 	ldbu	r3,0(r16)
 8003808:	00bff7c4 	movi	r2,-33
 800380c:	1884703a 	and	r2,r3,r2
 8003810:	10803fcc 	andi	r2,r2,255
 8003814:	1080201c 	xori	r2,r2,128
 8003818:	10bfe004 	addi	r2,r2,-128
 800381c:	00c01604 	movi	r3,88
 8003820:	10fff326 	beq	r2,r3,80037f0 <__alt_data_end+0xfc0037f0>
 8003824:	05c00204 	movi	r23,8
 8003828:	b825883a 	mov	r18,r23
 800382c:	003f8e06 	br	8003668 <__alt_data_end+0xfc003668>

08003830 <strtol>:
 8003830:	2007883a 	mov	r3,r4
 8003834:	01020074 	movhi	r4,2049
 8003838:	210f3204 	addi	r4,r4,15560
 800383c:	21000017 	ldw	r4,0(r4)
 8003840:	2805883a 	mov	r2,r5
 8003844:	300f883a 	mov	r7,r6
 8003848:	180b883a 	mov	r5,r3
 800384c:	100d883a 	mov	r6,r2
 8003850:	80035c81 	jmpi	80035c8 <_strtol_r>

08003854 <___vfprintf_internal_r>:
 8003854:	defeb604 	addi	sp,sp,-1320
 8003858:	dfc14915 	stw	ra,1316(sp)
 800385c:	ddc14715 	stw	r23,1308(sp)
 8003860:	dd814615 	stw	r22,1304(sp)
 8003864:	202f883a 	mov	r23,r4
 8003868:	282d883a 	mov	r22,r5
 800386c:	d9812a15 	stw	r6,1192(sp)
 8003870:	d9c12d15 	stw	r7,1204(sp)
 8003874:	df014815 	stw	fp,1312(sp)
 8003878:	dd414515 	stw	r21,1300(sp)
 800387c:	dd014415 	stw	r20,1296(sp)
 8003880:	dcc14315 	stw	r19,1292(sp)
 8003884:	dc814215 	stw	r18,1288(sp)
 8003888:	dc414115 	stw	r17,1284(sp)
 800388c:	dc014015 	stw	r16,1280(sp)
 8003890:	8007ae00 	call	8007ae0 <_localeconv_r>
 8003894:	10800017 	ldw	r2,0(r2)
 8003898:	1009883a 	mov	r4,r2
 800389c:	d8813515 	stw	r2,1236(sp)
 80038a0:	80034700 	call	8003470 <strlen>
 80038a4:	d8813815 	stw	r2,1248(sp)
 80038a8:	b8000226 	beq	r23,zero,80038b4 <___vfprintf_internal_r+0x60>
 80038ac:	b8800e17 	ldw	r2,56(r23)
 80038b0:	10010526 	beq	r2,zero,8003cc8 <___vfprintf_internal_r+0x474>
 80038b4:	b0c0030b 	ldhu	r3,12(r22)
 80038b8:	1908000c 	andi	r4,r3,8192
 80038bc:	1805883a 	mov	r2,r3
 80038c0:	2000071e 	bne	r4,zero,80038e0 <___vfprintf_internal_r+0x8c>
 80038c4:	b1001917 	ldw	r4,100(r22)
 80038c8:	18880014 	ori	r2,r3,8192
 80038cc:	00f7ffc4 	movi	r3,-8193
 80038d0:	20c8703a 	and	r4,r4,r3
 80038d4:	b080030d 	sth	r2,12(r22)
 80038d8:	1007883a 	mov	r3,r2
 80038dc:	b1001915 	stw	r4,100(r22)
 80038e0:	1100020c 	andi	r4,r2,8
 80038e4:	2000a826 	beq	r4,zero,8003b88 <___vfprintf_internal_r+0x334>
 80038e8:	b1000417 	ldw	r4,16(r22)
 80038ec:	2000a626 	beq	r4,zero,8003b88 <___vfprintf_internal_r+0x334>
 80038f0:	1080068c 	andi	r2,r2,26
 80038f4:	01000284 	movi	r4,10
 80038f8:	1100ac26 	beq	r2,r4,8003bac <___vfprintf_internal_r+0x358>
 80038fc:	d8c10e04 	addi	r3,sp,1080
 8003900:	d9010dc4 	addi	r4,sp,1079
 8003904:	d9400404 	addi	r5,sp,16
 8003908:	05020074 	movhi	r20,2049
 800390c:	1905c83a 	sub	r2,r3,r4
 8003910:	a5070484 	addi	r20,r20,7186
 8003914:	d8c12815 	stw	r3,1184(sp)
 8003918:	d9012915 	stw	r4,1188(sp)
 800391c:	d9411e15 	stw	r5,1144(sp)
 8003920:	d8012015 	stw	zero,1152(sp)
 8003924:	d8011f15 	stw	zero,1148(sp)
 8003928:	d8013315 	stw	zero,1228(sp)
 800392c:	d8013715 	stw	zero,1244(sp)
 8003930:	d8013915 	stw	zero,1252(sp)
 8003934:	d8013b15 	stw	zero,1260(sp)
 8003938:	d8013a15 	stw	zero,1256(sp)
 800393c:	d8012f15 	stw	zero,1212(sp)
 8003940:	2811883a 	mov	r8,r5
 8003944:	d8813c15 	stw	r2,1264(sp)
 8003948:	d8c12a17 	ldw	r3,1192(sp)
 800394c:	18800007 	ldb	r2,0(r3)
 8003950:	10021326 	beq	r2,zero,80041a0 <___vfprintf_internal_r+0x94c>
 8003954:	00c00944 	movi	r3,37
 8003958:	dc012a17 	ldw	r16,1192(sp)
 800395c:	10c0021e 	bne	r2,r3,8003968 <___vfprintf_internal_r+0x114>
 8003960:	00001606 	br	80039bc <___vfprintf_internal_r+0x168>
 8003964:	10c08526 	beq	r2,r3,8003b7c <___vfprintf_internal_r+0x328>
 8003968:	84000044 	addi	r16,r16,1
 800396c:	80800007 	ldb	r2,0(r16)
 8003970:	103ffc1e 	bne	r2,zero,8003964 <__alt_data_end+0xfc003964>
 8003974:	d9012a17 	ldw	r4,1192(sp)
 8003978:	8123c83a 	sub	r17,r16,r4
 800397c:	88000f26 	beq	r17,zero,80039bc <___vfprintf_internal_r+0x168>
 8003980:	d8812a17 	ldw	r2,1192(sp)
 8003984:	d8c12017 	ldw	r3,1152(sp)
 8003988:	44400115 	stw	r17,4(r8)
 800398c:	40800015 	stw	r2,0(r8)
 8003990:	d8811f17 	ldw	r2,1148(sp)
 8003994:	1c47883a 	add	r3,r3,r17
 8003998:	d8c12015 	stw	r3,1152(sp)
 800399c:	10800044 	addi	r2,r2,1
 80039a0:	d8811f15 	stw	r2,1148(sp)
 80039a4:	00c001c4 	movi	r3,7
 80039a8:	1880b516 	blt	r3,r2,8003c80 <___vfprintf_internal_r+0x42c>
 80039ac:	42000204 	addi	r8,r8,8
 80039b0:	d8c12f17 	ldw	r3,1212(sp)
 80039b4:	1c47883a 	add	r3,r3,r17
 80039b8:	d8c12f15 	stw	r3,1212(sp)
 80039bc:	80800007 	ldb	r2,0(r16)
 80039c0:	1000b626 	beq	r2,zero,8003c9c <___vfprintf_internal_r+0x448>
 80039c4:	80800044 	addi	r2,r16,1
 80039c8:	84000047 	ldb	r16,1(r16)
 80039cc:	0027883a 	mov	r19,zero
 80039d0:	0039883a 	mov	fp,zero
 80039d4:	dcc12b05 	stb	r19,1196(sp)
 80039d8:	d8012785 	stb	zero,1182(sp)
 80039dc:	027fffc4 	movi	r9,-1
 80039e0:	d8012e15 	stw	zero,1208(sp)
 80039e4:	04401604 	movi	r17,88
 80039e8:	04800244 	movi	r18,9
 80039ec:	da012a15 	stw	r8,1192(sp)
 80039f0:	e027883a 	mov	r19,fp
 80039f4:	17000044 	addi	fp,r2,1
 80039f8:	80bff804 	addi	r2,r16,-32
 80039fc:	88831236 	bltu	r17,r2,8004648 <___vfprintf_internal_r+0xdf4>
 8003a00:	100490ba 	slli	r2,r2,2
 8003a04:	01020034 	movhi	r4,2048
 8003a08:	210e8604 	addi	r4,r4,14872
 8003a0c:	1105883a 	add	r2,r2,r4
 8003a10:	10800017 	ldw	r2,0(r2)
 8003a14:	1000683a 	jmp	r2
 8003a18:	08004564 	muli	zero,at,277
 8003a1c:	08004648 	cmpgei	zero,at,281
 8003a20:	08004648 	cmpgei	zero,at,281
 8003a24:	08004580 	call	800458 <__alt_mem_onchip_memory2_0+0x800458>
 8003a28:	08004648 	cmpgei	zero,at,281
 8003a2c:	08004648 	cmpgei	zero,at,281
 8003a30:	08004648 	cmpgei	zero,at,281
 8003a34:	08004648 	cmpgei	zero,at,281
 8003a38:	08004648 	cmpgei	zero,at,281
 8003a3c:	08004648 	cmpgei	zero,at,281
 8003a40:	08004590 	cmplti	zero,at,278
 8003a44:	080045b8 	rdprs	zero,at,278
 8003a48:	08004648 	cmpgei	zero,at,281
 8003a4c:	08003cd4 	ori	zero,at,243
 8003a50:	08003ce4 	muli	zero,at,243
 8003a54:	08004648 	cmpgei	zero,at,281
 8003a58:	08003d34 	orhi	zero,at,244
 8003a5c:	08003d44 	addi	zero,at,245
 8003a60:	08003d44 	addi	zero,at,245
 8003a64:	08003d44 	addi	zero,at,245
 8003a68:	08003d44 	addi	zero,at,245
 8003a6c:	08003d44 	addi	zero,at,245
 8003a70:	08003d44 	addi	zero,at,245
 8003a74:	08003d44 	addi	zero,at,245
 8003a78:	08003d44 	addi	zero,at,245
 8003a7c:	08003d44 	addi	zero,at,245
 8003a80:	08004648 	cmpgei	zero,at,281
 8003a84:	08004648 	cmpgei	zero,at,281
 8003a88:	08004648 	cmpgei	zero,at,281
 8003a8c:	08004648 	cmpgei	zero,at,281
 8003a90:	08004648 	cmpgei	zero,at,281
 8003a94:	08004648 	cmpgei	zero,at,281
 8003a98:	08004648 	cmpgei	zero,at,281
 8003a9c:	08004648 	cmpgei	zero,at,281
 8003aa0:	08004648 	cmpgei	zero,at,281
 8003aa4:	08004648 	cmpgei	zero,at,281
 8003aa8:	08003d88 	cmpgei	zero,at,246
 8003aac:	080041a8 	cmpgeui	zero,at,262
 8003ab0:	08004648 	cmpgei	zero,at,281
 8003ab4:	080041a8 	cmpgeui	zero,at,262
 8003ab8:	08004648 	cmpgei	zero,at,281
 8003abc:	08004648 	cmpgei	zero,at,281
 8003ac0:	08004648 	cmpgei	zero,at,281
 8003ac4:	08004648 	cmpgei	zero,at,281
 8003ac8:	08004250 	cmplti	zero,at,265
 8003acc:	08004648 	cmpgei	zero,at,281
 8003ad0:	08004648 	cmpgei	zero,at,281
 8003ad4:	08004260 	cmpeqi	zero,at,265
 8003ad8:	08004648 	cmpgei	zero,at,281
 8003adc:	08004648 	cmpgei	zero,at,281
 8003ae0:	08004648 	cmpgei	zero,at,281
 8003ae4:	08004648 	cmpgei	zero,at,281
 8003ae8:	08004648 	cmpgei	zero,at,281
 8003aec:	080042a4 	muli	zero,at,266
 8003af0:	08004648 	cmpgei	zero,at,281
 8003af4:	08004648 	cmpgei	zero,at,281
 8003af8:	080042dc 	xori	zero,at,267
 8003afc:	08004648 	cmpgei	zero,at,281
 8003b00:	08004648 	cmpgei	zero,at,281
 8003b04:	08004648 	cmpgei	zero,at,281
 8003b08:	08004648 	cmpgei	zero,at,281
 8003b0c:	08004648 	cmpgei	zero,at,281
 8003b10:	08004648 	cmpgei	zero,at,281
 8003b14:	08004648 	cmpgei	zero,at,281
 8003b18:	08004648 	cmpgei	zero,at,281
 8003b1c:	08004648 	cmpgei	zero,at,281
 8003b20:	08004648 	cmpgei	zero,at,281
 8003b24:	08004518 	cmpnei	zero,at,276
 8003b28:	080044c4 	addi	zero,at,275
 8003b2c:	080041a8 	cmpgeui	zero,at,262
 8003b30:	080041a8 	cmpgeui	zero,at,262
 8003b34:	080041a8 	cmpgeui	zero,at,262
 8003b38:	08004508 	cmpgei	zero,at,276
 8003b3c:	080044c4 	addi	zero,at,275
 8003b40:	08004648 	cmpgei	zero,at,281
 8003b44:	08004648 	cmpgei	zero,at,281
 8003b48:	080043e0 	cmpeqi	zero,at,271
 8003b4c:	08004648 	cmpgei	zero,at,281
 8003b50:	080043f8 	rdprs	zero,at,271
 8003b54:	08004438 	rdprs	zero,at,272
 8003b58:	08004478 	rdprs	zero,at,273
 8003b5c:	08004344 	addi	zero,at,269
 8003b60:	08004648 	cmpgei	zero,at,281
 8003b64:	080045cc 	andi	zero,at,279
 8003b68:	08004648 	cmpgei	zero,at,281
 8003b6c:	08004354 	ori	zero,at,269
 8003b70:	08004648 	cmpgei	zero,at,281
 8003b74:	08004648 	cmpgei	zero,at,281
 8003b78:	08004394 	ori	zero,at,270
 8003b7c:	d9412a17 	ldw	r5,1192(sp)
 8003b80:	8163c83a 	sub	r17,r16,r5
 8003b84:	003f7d06 	br	800397c <__alt_data_end+0xfc00397c>
 8003b88:	b809883a 	mov	r4,r23
 8003b8c:	b00b883a 	mov	r5,r22
 8003b90:	80059d00 	call	80059d0 <__swsetup_r>
 8003b94:	10002d1e 	bne	r2,zero,8003c4c <___vfprintf_internal_r+0x3f8>
 8003b98:	b0c0030b 	ldhu	r3,12(r22)
 8003b9c:	01000284 	movi	r4,10
 8003ba0:	1805883a 	mov	r2,r3
 8003ba4:	1080068c 	andi	r2,r2,26
 8003ba8:	113f541e 	bne	r2,r4,80038fc <__alt_data_end+0xfc0038fc>
 8003bac:	b080038b 	ldhu	r2,14(r22)
 8003bb0:	113fffcc 	andi	r4,r2,65535
 8003bb4:	2120001c 	xori	r4,r4,32768
 8003bb8:	21200004 	addi	r4,r4,-32768
 8003bbc:	203f4f16 	blt	r4,zero,80038fc <__alt_data_end+0xfc0038fc>
 8003bc0:	b2c01917 	ldw	r11,100(r22)
 8003bc4:	b2800717 	ldw	r10,28(r22)
 8003bc8:	b2400917 	ldw	r9,36(r22)
 8003bcc:	d9812a17 	ldw	r6,1192(sp)
 8003bd0:	d9c12d17 	ldw	r7,1204(sp)
 8003bd4:	02010004 	movi	r8,1024
 8003bd8:	18ffff4c 	andi	r3,r3,65533
 8003bdc:	d881078d 	sth	r2,1054(sp)
 8003be0:	b809883a 	mov	r4,r23
 8003be4:	d8800404 	addi	r2,sp,16
 8003be8:	d9410404 	addi	r5,sp,1040
 8003bec:	d8c1070d 	sth	r3,1052(sp)
 8003bf0:	dac11d15 	stw	r11,1140(sp)
 8003bf4:	da810b15 	stw	r10,1068(sp)
 8003bf8:	da410d15 	stw	r9,1076(sp)
 8003bfc:	d8810415 	stw	r2,1040(sp)
 8003c00:	d8810815 	stw	r2,1056(sp)
 8003c04:	da010615 	stw	r8,1048(sp)
 8003c08:	da010915 	stw	r8,1060(sp)
 8003c0c:	d8010a15 	stw	zero,1064(sp)
 8003c10:	80038540 	call	8003854 <___vfprintf_internal_r>
 8003c14:	1021883a 	mov	r16,r2
 8003c18:	10000416 	blt	r2,zero,8003c2c <___vfprintf_internal_r+0x3d8>
 8003c1c:	b809883a 	mov	r4,r23
 8003c20:	d9410404 	addi	r5,sp,1040
 8003c24:	80010f00 	call	80010f0 <_fflush_r>
 8003c28:	1007301e 	bne	r2,zero,80058ec <___vfprintf_internal_r+0x2098>
 8003c2c:	d881070b 	ldhu	r2,1052(sp)
 8003c30:	1080100c 	andi	r2,r2,64
 8003c34:	10000326 	beq	r2,zero,8003c44 <___vfprintf_internal_r+0x3f0>
 8003c38:	b080030b 	ldhu	r2,12(r22)
 8003c3c:	10801014 	ori	r2,r2,64
 8003c40:	b080030d 	sth	r2,12(r22)
 8003c44:	8005883a 	mov	r2,r16
 8003c48:	00000106 	br	8003c50 <___vfprintf_internal_r+0x3fc>
 8003c4c:	00bfffc4 	movi	r2,-1
 8003c50:	dfc14917 	ldw	ra,1316(sp)
 8003c54:	df014817 	ldw	fp,1312(sp)
 8003c58:	ddc14717 	ldw	r23,1308(sp)
 8003c5c:	dd814617 	ldw	r22,1304(sp)
 8003c60:	dd414517 	ldw	r21,1300(sp)
 8003c64:	dd014417 	ldw	r20,1296(sp)
 8003c68:	dcc14317 	ldw	r19,1292(sp)
 8003c6c:	dc814217 	ldw	r18,1288(sp)
 8003c70:	dc414117 	ldw	r17,1284(sp)
 8003c74:	dc014017 	ldw	r16,1280(sp)
 8003c78:	dec14a04 	addi	sp,sp,1320
 8003c7c:	f800283a 	ret
 8003c80:	b809883a 	mov	r4,r23
 8003c84:	b00b883a 	mov	r5,r22
 8003c88:	d9811e04 	addi	r6,sp,1144
 8003c8c:	80097440 	call	8009744 <__sprint_r>
 8003c90:	1000081e 	bne	r2,zero,8003cb4 <___vfprintf_internal_r+0x460>
 8003c94:	da000404 	addi	r8,sp,16
 8003c98:	003f4506 	br	80039b0 <__alt_data_end+0xfc0039b0>
 8003c9c:	d8812017 	ldw	r2,1152(sp)
 8003ca0:	10000426 	beq	r2,zero,8003cb4 <___vfprintf_internal_r+0x460>
 8003ca4:	b809883a 	mov	r4,r23
 8003ca8:	b00b883a 	mov	r5,r22
 8003cac:	d9811e04 	addi	r6,sp,1144
 8003cb0:	80097440 	call	8009744 <__sprint_r>
 8003cb4:	b080030b 	ldhu	r2,12(r22)
 8003cb8:	1080100c 	andi	r2,r2,64
 8003cbc:	103fe31e 	bne	r2,zero,8003c4c <__alt_data_end+0xfc003c4c>
 8003cc0:	d8812f17 	ldw	r2,1212(sp)
 8003cc4:	003fe206 	br	8003c50 <__alt_data_end+0xfc003c50>
 8003cc8:	b809883a 	mov	r4,r23
 8003ccc:	80016ac0 	call	80016ac <__sinit>
 8003cd0:	003ef806 	br	80038b4 <__alt_data_end+0xfc0038b4>
 8003cd4:	e005883a 	mov	r2,fp
 8003cd8:	9cc00114 	ori	r19,r19,4
 8003cdc:	e4000007 	ldb	r16,0(fp)
 8003ce0:	003f4406 	br	80039f4 <__alt_data_end+0xfc0039f4>
 8003ce4:	e4000007 	ldb	r16,0(fp)
 8003ce8:	01000a84 	movi	r4,42
 8003cec:	e0800044 	addi	r2,fp,1
 8003cf0:	8106f626 	beq	r16,r4,80058cc <___vfprintf_internal_r+0x2078>
 8003cf4:	857ff404 	addi	r21,r16,-48
 8003cf8:	1039883a 	mov	fp,r2
 8003cfc:	0013883a 	mov	r9,zero
 8003d00:	957f3d36 	bltu	r18,r21,80039f8 <__alt_data_end+0xfc0039f8>
 8003d04:	0009883a 	mov	r4,zero
 8003d08:	01400284 	movi	r5,10
 8003d0c:	800bf500 	call	800bf50 <__mulsi3>
 8003d10:	e4000007 	ldb	r16,0(fp)
 8003d14:	a889883a 	add	r4,r21,r2
 8003d18:	e7000044 	addi	fp,fp,1
 8003d1c:	857ff404 	addi	r21,r16,-48
 8003d20:	957ff92e 	bgeu	r18,r21,8003d08 <__alt_data_end+0xfc003d08>
 8003d24:	2013883a 	mov	r9,r4
 8003d28:	203f330e 	bge	r4,zero,80039f8 <__alt_data_end+0xfc0039f8>
 8003d2c:	027fffc4 	movi	r9,-1
 8003d30:	003f3106 	br	80039f8 <__alt_data_end+0xfc0039f8>
 8003d34:	9cc02014 	ori	r19,r19,128
 8003d38:	e005883a 	mov	r2,fp
 8003d3c:	e4000007 	ldb	r16,0(fp)
 8003d40:	003f2c06 	br	80039f4 <__alt_data_end+0xfc0039f4>
 8003d44:	857ff404 	addi	r21,r16,-48
 8003d48:	d8012e15 	stw	zero,1208(sp)
 8003d4c:	e021883a 	mov	r16,fp
 8003d50:	0009883a 	mov	r4,zero
 8003d54:	da412c15 	stw	r9,1200(sp)
 8003d58:	01400284 	movi	r5,10
 8003d5c:	800bf500 	call	800bf50 <__mulsi3>
 8003d60:	81400007 	ldb	r5,0(r16)
 8003d64:	1549883a 	add	r4,r2,r21
 8003d68:	e7000044 	addi	fp,fp,1
 8003d6c:	2d7ff404 	addi	r21,r5,-48
 8003d70:	e021883a 	mov	r16,fp
 8003d74:	957ff82e 	bgeu	r18,r21,8003d58 <__alt_data_end+0xfc003d58>
 8003d78:	2821883a 	mov	r16,r5
 8003d7c:	d9012e15 	stw	r4,1208(sp)
 8003d80:	da412c17 	ldw	r9,1200(sp)
 8003d84:	003f1c06 	br	80039f8 <__alt_data_end+0xfc0039f8>
 8003d88:	da012a17 	ldw	r8,1192(sp)
 8003d8c:	df012a15 	stw	fp,1192(sp)
 8003d90:	9839883a 	mov	fp,r19
 8003d94:	dcc12b03 	ldbu	r19,1196(sp)
 8003d98:	e7000414 	ori	fp,fp,16
 8003d9c:	e080080c 	andi	r2,fp,32
 8003da0:	dcc12785 	stb	r19,1182(sp)
 8003da4:	d8c12d17 	ldw	r3,1204(sp)
 8003da8:	1001ce26 	beq	r2,zero,80044e4 <___vfprintf_internal_r+0xc90>
 8003dac:	d9012d17 	ldw	r4,1204(sp)
 8003db0:	18800117 	ldw	r2,4(r3)
 8003db4:	1c800017 	ldw	r18,0(r3)
 8003db8:	21000204 	addi	r4,r4,8
 8003dbc:	d9012d15 	stw	r4,1204(sp)
 8003dc0:	102b883a 	mov	r21,r2
 8003dc4:	10044916 	blt	r2,zero,8004eec <___vfprintf_internal_r+0x1698>
 8003dc8:	dcc12783 	ldbu	r19,1182(sp)
 8003dcc:	da413215 	stw	r9,1224(sp)
 8003dd0:	00800044 	movi	r2,1
 8003dd4:	9546b03a 	or	r3,r18,r21
 8003dd8:	48000216 	blt	r9,zero,8003de4 <___vfprintf_internal_r+0x590>
 8003ddc:	013fdfc4 	movi	r4,-129
 8003de0:	e138703a 	and	fp,fp,r4
 8003de4:	1802251e 	bne	r3,zero,800467c <___vfprintf_internal_r+0xe28>
 8003de8:	48031726 	beq	r9,zero,8004a48 <___vfprintf_internal_r+0x11f4>
 8003dec:	10803fcc 	andi	r2,r2,255
 8003df0:	00c00044 	movi	r3,1
 8003df4:	10c24526 	beq	r2,r3,800470c <___vfprintf_internal_r+0xeb8>
 8003df8:	00c00084 	movi	r3,2
 8003dfc:	10c33426 	beq	r2,r3,8004ad0 <___vfprintf_internal_r+0x127c>
 8003e00:	d8c10e04 	addi	r3,sp,1080
 8003e04:	9008d0fa 	srli	r4,r18,3
 8003e08:	a80a977a 	slli	r5,r21,29
 8003e0c:	a82ad0fa 	srli	r21,r21,3
 8003e10:	948001cc 	andi	r18,r18,7
 8003e14:	90800c04 	addi	r2,r18,48
 8003e18:	18ffffc4 	addi	r3,r3,-1
 8003e1c:	2924b03a 	or	r18,r5,r4
 8003e20:	18800005 	stb	r2,0(r3)
 8003e24:	9548b03a 	or	r4,r18,r21
 8003e28:	203ff61e 	bne	r4,zero,8003e04 <__alt_data_end+0xfc003e04>
 8003e2c:	e100004c 	andi	r4,fp,1
 8003e30:	d8c13115 	stw	r3,1220(sp)
 8003e34:	20039a1e 	bne	r4,zero,8004ca0 <___vfprintf_internal_r+0x144c>
 8003e38:	d8812817 	ldw	r2,1184(sp)
 8003e3c:	10e3c83a 	sub	r17,r2,r3
 8003e40:	8805883a 	mov	r2,r17
 8003e44:	8a40010e 	bge	r17,r9,8003e4c <___vfprintf_internal_r+0x5f8>
 8003e48:	4805883a 	mov	r2,r9
 8003e4c:	d8812b15 	stw	r2,1196(sp)
 8003e50:	d8013415 	stw	zero,1232(sp)
 8003e54:	98803fcc 	andi	r2,r19,255
 8003e58:	1080201c 	xori	r2,r2,128
 8003e5c:	10bfe004 	addi	r2,r2,-128
 8003e60:	10000326 	beq	r2,zero,8003e70 <___vfprintf_internal_r+0x61c>
 8003e64:	d8c12b17 	ldw	r3,1196(sp)
 8003e68:	18c00044 	addi	r3,r3,1
 8003e6c:	d8c12b15 	stw	r3,1196(sp)
 8003e70:	e0c0008c 	andi	r3,fp,2
 8003e74:	d8c12c15 	stw	r3,1200(sp)
 8003e78:	18000326 	beq	r3,zero,8003e88 <___vfprintf_internal_r+0x634>
 8003e7c:	d8c12b17 	ldw	r3,1196(sp)
 8003e80:	18c00084 	addi	r3,r3,2
 8003e84:	d8c12b15 	stw	r3,1196(sp)
 8003e88:	e0c0210c 	andi	r3,fp,132
 8003e8c:	d8c13015 	stw	r3,1216(sp)
 8003e90:	1801f81e 	bne	r3,zero,8004674 <___vfprintf_internal_r+0xe20>
 8003e94:	d9012e17 	ldw	r4,1208(sp)
 8003e98:	d8c12b17 	ldw	r3,1196(sp)
 8003e9c:	20ebc83a 	sub	r21,r4,r3
 8003ea0:	0541f40e 	bge	zero,r21,8004674 <___vfprintf_internal_r+0xe20>
 8003ea4:	02400404 	movi	r9,16
 8003ea8:	d8c12017 	ldw	r3,1152(sp)
 8003eac:	d8811f17 	ldw	r2,1148(sp)
 8003eb0:	4d45750e 	bge	r9,r21,8005488 <___vfprintf_internal_r+0x1c34>
 8003eb4:	01420074 	movhi	r5,2049
 8003eb8:	29470884 	addi	r5,r5,7202
 8003ebc:	d9413615 	stw	r5,1240(sp)
 8003ec0:	4827883a 	mov	r19,r9
 8003ec4:	048001c4 	movi	r18,7
 8003ec8:	00000306 	br	8003ed8 <___vfprintf_internal_r+0x684>
 8003ecc:	ad7ffc04 	addi	r21,r21,-16
 8003ed0:	42000204 	addi	r8,r8,8
 8003ed4:	9d40130e 	bge	r19,r21,8003f24 <___vfprintf_internal_r+0x6d0>
 8003ed8:	01020074 	movhi	r4,2049
 8003edc:	18c00404 	addi	r3,r3,16
 8003ee0:	10800044 	addi	r2,r2,1
 8003ee4:	21070884 	addi	r4,r4,7202
 8003ee8:	41000015 	stw	r4,0(r8)
 8003eec:	44c00115 	stw	r19,4(r8)
 8003ef0:	d8c12015 	stw	r3,1152(sp)
 8003ef4:	d8811f15 	stw	r2,1148(sp)
 8003ef8:	90bff40e 	bge	r18,r2,8003ecc <__alt_data_end+0xfc003ecc>
 8003efc:	b809883a 	mov	r4,r23
 8003f00:	b00b883a 	mov	r5,r22
 8003f04:	d9811e04 	addi	r6,sp,1144
 8003f08:	80097440 	call	8009744 <__sprint_r>
 8003f0c:	103f691e 	bne	r2,zero,8003cb4 <__alt_data_end+0xfc003cb4>
 8003f10:	ad7ffc04 	addi	r21,r21,-16
 8003f14:	d8c12017 	ldw	r3,1152(sp)
 8003f18:	d8811f17 	ldw	r2,1148(sp)
 8003f1c:	da000404 	addi	r8,sp,16
 8003f20:	9d7fed16 	blt	r19,r21,8003ed8 <__alt_data_end+0xfc003ed8>
 8003f24:	d9413617 	ldw	r5,1240(sp)
 8003f28:	a8c7883a 	add	r3,r21,r3
 8003f2c:	10800044 	addi	r2,r2,1
 8003f30:	41400015 	stw	r5,0(r8)
 8003f34:	45400115 	stw	r21,4(r8)
 8003f38:	d8c12015 	stw	r3,1152(sp)
 8003f3c:	d8811f15 	stw	r2,1148(sp)
 8003f40:	010001c4 	movi	r4,7
 8003f44:	20832b16 	blt	r4,r2,8004bf4 <___vfprintf_internal_r+0x13a0>
 8003f48:	d8812787 	ldb	r2,1182(sp)
 8003f4c:	42000204 	addi	r8,r8,8
 8003f50:	10000c26 	beq	r2,zero,8003f84 <___vfprintf_internal_r+0x730>
 8003f54:	d8811f17 	ldw	r2,1148(sp)
 8003f58:	d9012784 	addi	r4,sp,1182
 8003f5c:	18c00044 	addi	r3,r3,1
 8003f60:	10800044 	addi	r2,r2,1
 8003f64:	41000015 	stw	r4,0(r8)
 8003f68:	01000044 	movi	r4,1
 8003f6c:	41000115 	stw	r4,4(r8)
 8003f70:	d8c12015 	stw	r3,1152(sp)
 8003f74:	d8811f15 	stw	r2,1148(sp)
 8003f78:	010001c4 	movi	r4,7
 8003f7c:	2082c416 	blt	r4,r2,8004a90 <___vfprintf_internal_r+0x123c>
 8003f80:	42000204 	addi	r8,r8,8
 8003f84:	d8812c17 	ldw	r2,1200(sp)
 8003f88:	10000c26 	beq	r2,zero,8003fbc <___vfprintf_internal_r+0x768>
 8003f8c:	d8811f17 	ldw	r2,1148(sp)
 8003f90:	d9012704 	addi	r4,sp,1180
 8003f94:	18c00084 	addi	r3,r3,2
 8003f98:	10800044 	addi	r2,r2,1
 8003f9c:	41000015 	stw	r4,0(r8)
 8003fa0:	01000084 	movi	r4,2
 8003fa4:	41000115 	stw	r4,4(r8)
 8003fa8:	d8c12015 	stw	r3,1152(sp)
 8003fac:	d8811f15 	stw	r2,1148(sp)
 8003fb0:	010001c4 	movi	r4,7
 8003fb4:	2082be16 	blt	r4,r2,8004ab0 <___vfprintf_internal_r+0x125c>
 8003fb8:	42000204 	addi	r8,r8,8
 8003fbc:	d9013017 	ldw	r4,1216(sp)
 8003fc0:	00802004 	movi	r2,128
 8003fc4:	20822026 	beq	r4,r2,8004848 <___vfprintf_internal_r+0xff4>
 8003fc8:	d9413217 	ldw	r5,1224(sp)
 8003fcc:	2c67c83a 	sub	r19,r5,r17
 8003fd0:	04c0260e 	bge	zero,r19,800406c <___vfprintf_internal_r+0x818>
 8003fd4:	05400404 	movi	r21,16
 8003fd8:	d8811f17 	ldw	r2,1148(sp)
 8003fdc:	acc4720e 	bge	r21,r19,80051a8 <___vfprintf_internal_r+0x1954>
 8003fe0:	01420074 	movhi	r5,2049
 8003fe4:	29470484 	addi	r5,r5,7186
 8003fe8:	d9412c15 	stw	r5,1200(sp)
 8003fec:	048001c4 	movi	r18,7
 8003ff0:	00000306 	br	8004000 <___vfprintf_internal_r+0x7ac>
 8003ff4:	9cfffc04 	addi	r19,r19,-16
 8003ff8:	42000204 	addi	r8,r8,8
 8003ffc:	acc0110e 	bge	r21,r19,8004044 <___vfprintf_internal_r+0x7f0>
 8004000:	18c00404 	addi	r3,r3,16
 8004004:	10800044 	addi	r2,r2,1
 8004008:	45000015 	stw	r20,0(r8)
 800400c:	45400115 	stw	r21,4(r8)
 8004010:	d8c12015 	stw	r3,1152(sp)
 8004014:	d8811f15 	stw	r2,1148(sp)
 8004018:	90bff60e 	bge	r18,r2,8003ff4 <__alt_data_end+0xfc003ff4>
 800401c:	b809883a 	mov	r4,r23
 8004020:	b00b883a 	mov	r5,r22
 8004024:	d9811e04 	addi	r6,sp,1144
 8004028:	80097440 	call	8009744 <__sprint_r>
 800402c:	103f211e 	bne	r2,zero,8003cb4 <__alt_data_end+0xfc003cb4>
 8004030:	9cfffc04 	addi	r19,r19,-16
 8004034:	d8c12017 	ldw	r3,1152(sp)
 8004038:	d8811f17 	ldw	r2,1148(sp)
 800403c:	da000404 	addi	r8,sp,16
 8004040:	acffef16 	blt	r21,r19,8004000 <__alt_data_end+0xfc004000>
 8004044:	d9012c17 	ldw	r4,1200(sp)
 8004048:	1cc7883a 	add	r3,r3,r19
 800404c:	10800044 	addi	r2,r2,1
 8004050:	41000015 	stw	r4,0(r8)
 8004054:	44c00115 	stw	r19,4(r8)
 8004058:	d8c12015 	stw	r3,1152(sp)
 800405c:	d8811f15 	stw	r2,1148(sp)
 8004060:	010001c4 	movi	r4,7
 8004064:	20828216 	blt	r4,r2,8004a70 <___vfprintf_internal_r+0x121c>
 8004068:	42000204 	addi	r8,r8,8
 800406c:	e080400c 	andi	r2,fp,256
 8004070:	1001ac1e 	bne	r2,zero,8004724 <___vfprintf_internal_r+0xed0>
 8004074:	d8811f17 	ldw	r2,1148(sp)
 8004078:	d9413117 	ldw	r5,1220(sp)
 800407c:	1c47883a 	add	r3,r3,r17
 8004080:	10800044 	addi	r2,r2,1
 8004084:	41400015 	stw	r5,0(r8)
 8004088:	44400115 	stw	r17,4(r8)
 800408c:	d8c12015 	stw	r3,1152(sp)
 8004090:	d8811f15 	stw	r2,1148(sp)
 8004094:	010001c4 	movi	r4,7
 8004098:	20825d16 	blt	r4,r2,8004a10 <___vfprintf_internal_r+0x11bc>
 800409c:	42000204 	addi	r8,r8,8
 80040a0:	e080010c 	andi	r2,fp,4
 80040a4:	10003126 	beq	r2,zero,800416c <___vfprintf_internal_r+0x918>
 80040a8:	d8812e17 	ldw	r2,1208(sp)
 80040ac:	d9012b17 	ldw	r4,1196(sp)
 80040b0:	1121c83a 	sub	r16,r2,r4
 80040b4:	04002d0e 	bge	zero,r16,800416c <___vfprintf_internal_r+0x918>
 80040b8:	04400404 	movi	r17,16
 80040bc:	d8811f17 	ldw	r2,1148(sp)
 80040c0:	8c05340e 	bge	r17,r16,8005594 <___vfprintf_internal_r+0x1d40>
 80040c4:	01020074 	movhi	r4,2049
 80040c8:	21070884 	addi	r4,r4,7202
 80040cc:	d9013615 	stw	r4,1240(sp)
 80040d0:	048001c4 	movi	r18,7
 80040d4:	00000306 	br	80040e4 <___vfprintf_internal_r+0x890>
 80040d8:	843ffc04 	addi	r16,r16,-16
 80040dc:	42000204 	addi	r8,r8,8
 80040e0:	8c00130e 	bge	r17,r16,8004130 <___vfprintf_internal_r+0x8dc>
 80040e4:	01420074 	movhi	r5,2049
 80040e8:	18c00404 	addi	r3,r3,16
 80040ec:	10800044 	addi	r2,r2,1
 80040f0:	29470884 	addi	r5,r5,7202
 80040f4:	41400015 	stw	r5,0(r8)
 80040f8:	44400115 	stw	r17,4(r8)
 80040fc:	d8c12015 	stw	r3,1152(sp)
 8004100:	d8811f15 	stw	r2,1148(sp)
 8004104:	90bff40e 	bge	r18,r2,80040d8 <__alt_data_end+0xfc0040d8>
 8004108:	b809883a 	mov	r4,r23
 800410c:	b00b883a 	mov	r5,r22
 8004110:	d9811e04 	addi	r6,sp,1144
 8004114:	80097440 	call	8009744 <__sprint_r>
 8004118:	103ee61e 	bne	r2,zero,8003cb4 <__alt_data_end+0xfc003cb4>
 800411c:	843ffc04 	addi	r16,r16,-16
 8004120:	d8c12017 	ldw	r3,1152(sp)
 8004124:	d8811f17 	ldw	r2,1148(sp)
 8004128:	da000404 	addi	r8,sp,16
 800412c:	8c3fed16 	blt	r17,r16,80040e4 <__alt_data_end+0xfc0040e4>
 8004130:	d9013617 	ldw	r4,1240(sp)
 8004134:	1c07883a 	add	r3,r3,r16
 8004138:	10800044 	addi	r2,r2,1
 800413c:	41000015 	stw	r4,0(r8)
 8004140:	44000115 	stw	r16,4(r8)
 8004144:	d8c12015 	stw	r3,1152(sp)
 8004148:	d8811f15 	stw	r2,1148(sp)
 800414c:	010001c4 	movi	r4,7
 8004150:	2080060e 	bge	r4,r2,800416c <___vfprintf_internal_r+0x918>
 8004154:	b809883a 	mov	r4,r23
 8004158:	b00b883a 	mov	r5,r22
 800415c:	d9811e04 	addi	r6,sp,1144
 8004160:	80097440 	call	8009744 <__sprint_r>
 8004164:	103ed31e 	bne	r2,zero,8003cb4 <__alt_data_end+0xfc003cb4>
 8004168:	d8c12017 	ldw	r3,1152(sp)
 800416c:	df012b17 	ldw	fp,1196(sp)
 8004170:	d9412e17 	ldw	r5,1208(sp)
 8004174:	e140010e 	bge	fp,r5,800417c <___vfprintf_internal_r+0x928>
 8004178:	2839883a 	mov	fp,r5
 800417c:	d8812f17 	ldw	r2,1212(sp)
 8004180:	1705883a 	add	r2,r2,fp
 8004184:	d8812f15 	stw	r2,1212(sp)
 8004188:	1802291e 	bne	r3,zero,8004a30 <___vfprintf_internal_r+0x11dc>
 800418c:	d8c12a17 	ldw	r3,1192(sp)
 8004190:	d8011f15 	stw	zero,1148(sp)
 8004194:	da000404 	addi	r8,sp,16
 8004198:	18800007 	ldb	r2,0(r3)
 800419c:	103ded1e 	bne	r2,zero,8003954 <__alt_data_end+0xfc003954>
 80041a0:	dc012a17 	ldw	r16,1192(sp)
 80041a4:	003e0506 	br	80039bc <__alt_data_end+0xfc0039bc>
 80041a8:	d9012d17 	ldw	r4,1204(sp)
 80041ac:	d9412d17 	ldw	r5,1204(sp)
 80041b0:	da012a17 	ldw	r8,1192(sp)
 80041b4:	21000017 	ldw	r4,0(r4)
 80041b8:	29400117 	ldw	r5,4(r5)
 80041bc:	df012a15 	stw	fp,1192(sp)
 80041c0:	9839883a 	mov	fp,r19
 80041c4:	dcc12b03 	ldbu	r19,1196(sp)
 80041c8:	d9013715 	stw	r4,1244(sp)
 80041cc:	d9413915 	stw	r5,1252(sp)
 80041d0:	da013f15 	stw	r8,1276(sp)
 80041d4:	da413e15 	stw	r9,1272(sp)
 80041d8:	dcc12785 	stb	r19,1182(sp)
 80041dc:	80095300 	call	8009530 <__fpclassifyd>
 80041e0:	d8c12d17 	ldw	r3,1204(sp)
 80041e4:	04400044 	movi	r17,1
 80041e8:	da013f17 	ldw	r8,1276(sp)
 80041ec:	1c800204 	addi	r18,r3,8
 80041f0:	da413e17 	ldw	r9,1272(sp)
 80041f4:	d9013717 	ldw	r4,1244(sp)
 80041f8:	d9413917 	ldw	r5,1252(sp)
 80041fc:	1443451e 	bne	r2,r17,8004f14 <___vfprintf_internal_r+0x16c0>
 8004200:	000d883a 	mov	r6,zero
 8004204:	000f883a 	mov	r7,zero
 8004208:	800d2f80 	call	800d2f8 <__ledf2>
 800420c:	da013f17 	ldw	r8,1276(sp)
 8004210:	1004fe16 	blt	r2,zero,800560c <___vfprintf_internal_r+0x1db8>
 8004214:	dcc12783 	ldbu	r19,1182(sp)
 8004218:	008011c4 	movi	r2,71
 800421c:	14045d0e 	bge	r2,r16,8005394 <___vfprintf_internal_r+0x1b40>
 8004220:	01420074 	movhi	r5,2049
 8004224:	2946f504 	addi	r5,r5,7124
 8004228:	d9413115 	stw	r5,1220(sp)
 800422c:	00c000c4 	movi	r3,3
 8004230:	00bfdfc4 	movi	r2,-129
 8004234:	d8c12b15 	stw	r3,1196(sp)
 8004238:	e0b8703a 	and	fp,fp,r2
 800423c:	dc812d15 	stw	r18,1204(sp)
 8004240:	1823883a 	mov	r17,r3
 8004244:	d8013215 	stw	zero,1224(sp)
 8004248:	d8013415 	stw	zero,1232(sp)
 800424c:	003f0106 	br	8003e54 <__alt_data_end+0xfc003e54>
 8004250:	9cc00214 	ori	r19,r19,8
 8004254:	e005883a 	mov	r2,fp
 8004258:	e4000007 	ldb	r16,0(fp)
 800425c:	003de506 	br	80039f4 <__alt_data_end+0xfc0039f4>
 8004260:	da012a17 	ldw	r8,1192(sp)
 8004264:	df012a15 	stw	fp,1192(sp)
 8004268:	9f000414 	ori	fp,r19,16
 800426c:	e0c0080c 	andi	r3,fp,32
 8004270:	d8812d17 	ldw	r2,1204(sp)
 8004274:	18007626 	beq	r3,zero,8004450 <___vfprintf_internal_r+0xbfc>
 8004278:	d9412d17 	ldw	r5,1204(sp)
 800427c:	14800017 	ldw	r18,0(r2)
 8004280:	15400117 	ldw	r21,4(r2)
 8004284:	29400204 	addi	r5,r5,8
 8004288:	d9412d15 	stw	r5,1204(sp)
 800428c:	0005883a 	mov	r2,zero
 8004290:	9546b03a 	or	r3,r18,r21
 8004294:	d8012785 	stb	zero,1182(sp)
 8004298:	da413215 	stw	r9,1224(sp)
 800429c:	0027883a 	mov	r19,zero
 80042a0:	003ecd06 	br	8003dd8 <__alt_data_end+0xfc003dd8>
 80042a4:	da012a17 	ldw	r8,1192(sp)
 80042a8:	df012a15 	stw	fp,1192(sp)
 80042ac:	9f000414 	ori	fp,r19,16
 80042b0:	e0c0080c 	andi	r3,fp,32
 80042b4:	d8812d17 	ldw	r2,1204(sp)
 80042b8:	18002c26 	beq	r3,zero,800436c <___vfprintf_internal_r+0xb18>
 80042bc:	d9012d17 	ldw	r4,1204(sp)
 80042c0:	14800017 	ldw	r18,0(r2)
 80042c4:	15400117 	ldw	r21,4(r2)
 80042c8:	21000204 	addi	r4,r4,8
 80042cc:	d9012d15 	stw	r4,1204(sp)
 80042d0:	00800044 	movi	r2,1
 80042d4:	9546b03a 	or	r3,r18,r21
 80042d8:	003fee06 	br	8004294 <__alt_data_end+0xfc004294>
 80042dc:	da012a17 	ldw	r8,1192(sp)
 80042e0:	df012a15 	stw	fp,1192(sp)
 80042e4:	9839883a 	mov	fp,r19
 80042e8:	dcc12b03 	ldbu	r19,1196(sp)
 80042ec:	01420074 	movhi	r5,2049
 80042f0:	2946f804 	addi	r5,r5,7136
 80042f4:	dcc12785 	stb	r19,1182(sp)
 80042f8:	d9413b15 	stw	r5,1260(sp)
 80042fc:	e0c0080c 	andi	r3,fp,32
 8004300:	d8812d17 	ldw	r2,1204(sp)
 8004304:	18002e26 	beq	r3,zero,80043c0 <___vfprintf_internal_r+0xb6c>
 8004308:	d9412d17 	ldw	r5,1204(sp)
 800430c:	14800017 	ldw	r18,0(r2)
 8004310:	15400117 	ldw	r21,4(r2)
 8004314:	29400204 	addi	r5,r5,8
 8004318:	d9412d15 	stw	r5,1204(sp)
 800431c:	e080004c 	andi	r2,fp,1
 8004320:	10025c26 	beq	r2,zero,8004c94 <___vfprintf_internal_r+0x1440>
 8004324:	9546b03a 	or	r3,r18,r21
 8004328:	18038f26 	beq	r3,zero,8005168 <___vfprintf_internal_r+0x1914>
 800432c:	00800c04 	movi	r2,48
 8004330:	d8812705 	stb	r2,1180(sp)
 8004334:	dc012745 	stb	r16,1181(sp)
 8004338:	e7000094 	ori	fp,fp,2
 800433c:	00800084 	movi	r2,2
 8004340:	003fd406 	br	8004294 <__alt_data_end+0xfc004294>
 8004344:	9cc00814 	ori	r19,r19,32
 8004348:	e005883a 	mov	r2,fp
 800434c:	e4000007 	ldb	r16,0(fp)
 8004350:	003da806 	br	80039f4 <__alt_data_end+0xfc0039f4>
 8004354:	da012a17 	ldw	r8,1192(sp)
 8004358:	df012a15 	stw	fp,1192(sp)
 800435c:	9839883a 	mov	fp,r19
 8004360:	e0c0080c 	andi	r3,fp,32
 8004364:	d8812d17 	ldw	r2,1204(sp)
 8004368:	183fd41e 	bne	r3,zero,80042bc <__alt_data_end+0xfc0042bc>
 800436c:	e0c0040c 	andi	r3,fp,16
 8004370:	18035f26 	beq	r3,zero,80050f0 <___vfprintf_internal_r+0x189c>
 8004374:	d9412d17 	ldw	r5,1204(sp)
 8004378:	14800017 	ldw	r18,0(r2)
 800437c:	002b883a 	mov	r21,zero
 8004380:	29400104 	addi	r5,r5,4
 8004384:	d9412d15 	stw	r5,1204(sp)
 8004388:	00800044 	movi	r2,1
 800438c:	9007883a 	mov	r3,r18
 8004390:	003fc006 	br	8004294 <__alt_data_end+0xfc004294>
 8004394:	da012a17 	ldw	r8,1192(sp)
 8004398:	df012a15 	stw	fp,1192(sp)
 800439c:	9839883a 	mov	fp,r19
 80043a0:	dcc12b03 	ldbu	r19,1196(sp)
 80043a4:	01020074 	movhi	r4,2049
 80043a8:	2106fd04 	addi	r4,r4,7156
 80043ac:	d9013b15 	stw	r4,1260(sp)
 80043b0:	dcc12785 	stb	r19,1182(sp)
 80043b4:	e0c0080c 	andi	r3,fp,32
 80043b8:	d8812d17 	ldw	r2,1204(sp)
 80043bc:	183fd21e 	bne	r3,zero,8004308 <__alt_data_end+0xfc004308>
 80043c0:	e0c0040c 	andi	r3,fp,16
 80043c4:	18035426 	beq	r3,zero,8005118 <___vfprintf_internal_r+0x18c4>
 80043c8:	d8c12d17 	ldw	r3,1204(sp)
 80043cc:	14800017 	ldw	r18,0(r2)
 80043d0:	002b883a 	mov	r21,zero
 80043d4:	18c00104 	addi	r3,r3,4
 80043d8:	d8c12d15 	stw	r3,1204(sp)
 80043dc:	003fcf06 	br	800431c <__alt_data_end+0xfc00431c>
 80043e0:	e4000007 	ldb	r16,0(fp)
 80043e4:	00801b04 	movi	r2,108
 80043e8:	8083f726 	beq	r16,r2,80053c8 <___vfprintf_internal_r+0x1b74>
 80043ec:	9cc00414 	ori	r19,r19,16
 80043f0:	e005883a 	mov	r2,fp
 80043f4:	003d7f06 	br	80039f4 <__alt_data_end+0xfc0039f4>
 80043f8:	da012a17 	ldw	r8,1192(sp)
 80043fc:	df012a15 	stw	fp,1192(sp)
 8004400:	9839883a 	mov	fp,r19
 8004404:	dcc12b03 	ldbu	r19,1196(sp)
 8004408:	e080080c 	andi	r2,fp,32
 800440c:	dcc12785 	stb	r19,1182(sp)
 8004410:	10032226 	beq	r2,zero,800509c <___vfprintf_internal_r+0x1848>
 8004414:	d9412d17 	ldw	r5,1204(sp)
 8004418:	d9012f17 	ldw	r4,1212(sp)
 800441c:	28800017 	ldw	r2,0(r5)
 8004420:	2007d7fa 	srai	r3,r4,31
 8004424:	29400104 	addi	r5,r5,4
 8004428:	d9412d15 	stw	r5,1204(sp)
 800442c:	11000015 	stw	r4,0(r2)
 8004430:	10c00115 	stw	r3,4(r2)
 8004434:	003d4406 	br	8003948 <__alt_data_end+0xfc003948>
 8004438:	da012a17 	ldw	r8,1192(sp)
 800443c:	df012a15 	stw	fp,1192(sp)
 8004440:	9839883a 	mov	fp,r19
 8004444:	e0c0080c 	andi	r3,fp,32
 8004448:	d8812d17 	ldw	r2,1204(sp)
 800444c:	183f8a1e 	bne	r3,zero,8004278 <__alt_data_end+0xfc004278>
 8004450:	e0c0040c 	andi	r3,fp,16
 8004454:	18031c26 	beq	r3,zero,80050c8 <___vfprintf_internal_r+0x1874>
 8004458:	14800017 	ldw	r18,0(r2)
 800445c:	d8812d17 	ldw	r2,1204(sp)
 8004460:	002b883a 	mov	r21,zero
 8004464:	9007883a 	mov	r3,r18
 8004468:	10800104 	addi	r2,r2,4
 800446c:	d8812d15 	stw	r2,1204(sp)
 8004470:	0005883a 	mov	r2,zero
 8004474:	003f8706 	br	8004294 <__alt_data_end+0xfc004294>
 8004478:	d9412d17 	ldw	r5,1204(sp)
 800447c:	00800c04 	movi	r2,48
 8004480:	d8812705 	stb	r2,1180(sp)
 8004484:	2c800017 	ldw	r18,0(r5)
 8004488:	00801e04 	movi	r2,120
 800448c:	d8812745 	stb	r2,1181(sp)
 8004490:	00820074 	movhi	r2,2049
 8004494:	1086fd04 	addi	r2,r2,7156
 8004498:	29400104 	addi	r5,r5,4
 800449c:	da012a17 	ldw	r8,1192(sp)
 80044a0:	d8813b15 	stw	r2,1260(sp)
 80044a4:	df012a15 	stw	fp,1192(sp)
 80044a8:	002b883a 	mov	r21,zero
 80044ac:	9f000094 	ori	fp,r19,2
 80044b0:	d9412d15 	stw	r5,1204(sp)
 80044b4:	00800084 	movi	r2,2
 80044b8:	04001e04 	movi	r16,120
 80044bc:	9007883a 	mov	r3,r18
 80044c0:	003f7406 	br	8004294 <__alt_data_end+0xfc004294>
 80044c4:	da012a17 	ldw	r8,1192(sp)
 80044c8:	df012a15 	stw	fp,1192(sp)
 80044cc:	9839883a 	mov	fp,r19
 80044d0:	dcc12b03 	ldbu	r19,1196(sp)
 80044d4:	e080080c 	andi	r2,fp,32
 80044d8:	d8c12d17 	ldw	r3,1204(sp)
 80044dc:	dcc12785 	stb	r19,1182(sp)
 80044e0:	103e321e 	bne	r2,zero,8003dac <__alt_data_end+0xfc003dac>
 80044e4:	e080040c 	andi	r2,fp,16
 80044e8:	10031326 	beq	r2,zero,8005138 <___vfprintf_internal_r+0x18e4>
 80044ec:	1c800017 	ldw	r18,0(r3)
 80044f0:	d9412d17 	ldw	r5,1204(sp)
 80044f4:	902bd7fa 	srai	r21,r18,31
 80044f8:	29400104 	addi	r5,r5,4
 80044fc:	d9412d15 	stw	r5,1204(sp)
 8004500:	a805883a 	mov	r2,r21
 8004504:	003e2f06 	br	8003dc4 <__alt_data_end+0xfc003dc4>
 8004508:	9cc01014 	ori	r19,r19,64
 800450c:	e005883a 	mov	r2,fp
 8004510:	e4000007 	ldb	r16,0(fp)
 8004514:	003d3706 	br	80039f4 <__alt_data_end+0xfc0039f4>
 8004518:	d8c12d17 	ldw	r3,1204(sp)
 800451c:	d9012d17 	ldw	r4,1204(sp)
 8004520:	da012a17 	ldw	r8,1192(sp)
 8004524:	18800017 	ldw	r2,0(r3)
 8004528:	21000104 	addi	r4,r4,4
 800452c:	00c00044 	movi	r3,1
 8004530:	df012a15 	stw	fp,1192(sp)
 8004534:	d8c12b15 	stw	r3,1196(sp)
 8004538:	9839883a 	mov	fp,r19
 800453c:	d8012785 	stb	zero,1182(sp)
 8004540:	d8810405 	stb	r2,1040(sp)
 8004544:	d9012d15 	stw	r4,1204(sp)
 8004548:	1823883a 	mov	r17,r3
 800454c:	d8c10404 	addi	r3,sp,1040
 8004550:	d8013215 	stw	zero,1224(sp)
 8004554:	d8013415 	stw	zero,1232(sp)
 8004558:	d8c13115 	stw	r3,1220(sp)
 800455c:	0005883a 	mov	r2,zero
 8004560:	003e4306 	br	8003e70 <__alt_data_end+0xfc003e70>
 8004564:	d8812b07 	ldb	r2,1196(sp)
 8004568:	1002fc1e 	bne	r2,zero,800515c <___vfprintf_internal_r+0x1908>
 800456c:	00c00804 	movi	r3,32
 8004570:	d8c12b05 	stb	r3,1196(sp)
 8004574:	e005883a 	mov	r2,fp
 8004578:	e4000007 	ldb	r16,0(fp)
 800457c:	003d1d06 	br	80039f4 <__alt_data_end+0xfc0039f4>
 8004580:	9cc00054 	ori	r19,r19,1
 8004584:	e005883a 	mov	r2,fp
 8004588:	e4000007 	ldb	r16,0(fp)
 800458c:	003d1906 	br	80039f4 <__alt_data_end+0xfc0039f4>
 8004590:	d9012d17 	ldw	r4,1204(sp)
 8004594:	d9412d17 	ldw	r5,1204(sp)
 8004598:	21000017 	ldw	r4,0(r4)
 800459c:	28c00104 	addi	r3,r5,4
 80045a0:	d9012e15 	stw	r4,1208(sp)
 80045a4:	20038c16 	blt	r4,zero,80053d8 <___vfprintf_internal_r+0x1b84>
 80045a8:	d8c12d15 	stw	r3,1204(sp)
 80045ac:	e005883a 	mov	r2,fp
 80045b0:	e4000007 	ldb	r16,0(fp)
 80045b4:	003d0f06 	br	80039f4 <__alt_data_end+0xfc0039f4>
 80045b8:	00c00ac4 	movi	r3,43
 80045bc:	d8c12b05 	stb	r3,1196(sp)
 80045c0:	e005883a 	mov	r2,fp
 80045c4:	e4000007 	ldb	r16,0(fp)
 80045c8:	003d0a06 	br	80039f4 <__alt_data_end+0xfc0039f4>
 80045cc:	d8c12d17 	ldw	r3,1204(sp)
 80045d0:	d9012d17 	ldw	r4,1204(sp)
 80045d4:	da012a17 	ldw	r8,1192(sp)
 80045d8:	18c00017 	ldw	r3,0(r3)
 80045dc:	df012a15 	stw	fp,1192(sp)
 80045e0:	d8012785 	stb	zero,1182(sp)
 80045e4:	d8c13115 	stw	r3,1220(sp)
 80045e8:	9839883a 	mov	fp,r19
 80045ec:	24800104 	addi	r18,r4,4
 80045f0:	1803f726 	beq	r3,zero,80055d0 <___vfprintf_internal_r+0x1d7c>
 80045f4:	d9013117 	ldw	r4,1220(sp)
 80045f8:	48038916 	blt	r9,zero,8005420 <___vfprintf_internal_r+0x1bcc>
 80045fc:	480d883a 	mov	r6,r9
 8004600:	000b883a 	mov	r5,zero
 8004604:	da013f15 	stw	r8,1276(sp)
 8004608:	da413e15 	stw	r9,1272(sp)
 800460c:	8007b700 	call	8007b70 <memchr>
 8004610:	da013f17 	ldw	r8,1276(sp)
 8004614:	da413e17 	ldw	r9,1272(sp)
 8004618:	10045926 	beq	r2,zero,8005780 <___vfprintf_internal_r+0x1f2c>
 800461c:	d8c13117 	ldw	r3,1220(sp)
 8004620:	10e3c83a 	sub	r17,r2,r3
 8004624:	4c433516 	blt	r9,r17,80052fc <___vfprintf_internal_r+0x1aa8>
 8004628:	8805883a 	mov	r2,r17
 800462c:	88038116 	blt	r17,zero,8005434 <___vfprintf_internal_r+0x1be0>
 8004630:	dcc12783 	ldbu	r19,1182(sp)
 8004634:	d8812b15 	stw	r2,1196(sp)
 8004638:	dc812d15 	stw	r18,1204(sp)
 800463c:	d8013215 	stw	zero,1224(sp)
 8004640:	d8013415 	stw	zero,1232(sp)
 8004644:	003e0306 	br	8003e54 <__alt_data_end+0xfc003e54>
 8004648:	da012a17 	ldw	r8,1192(sp)
 800464c:	df012a15 	stw	fp,1192(sp)
 8004650:	9839883a 	mov	fp,r19
 8004654:	dcc12b03 	ldbu	r19,1196(sp)
 8004658:	dcc12785 	stb	r19,1182(sp)
 800465c:	803d8f26 	beq	r16,zero,8003c9c <__alt_data_end+0xfc003c9c>
 8004660:	00c00044 	movi	r3,1
 8004664:	d8c12b15 	stw	r3,1196(sp)
 8004668:	dc010405 	stb	r16,1040(sp)
 800466c:	d8012785 	stb	zero,1182(sp)
 8004670:	003fb506 	br	8004548 <__alt_data_end+0xfc004548>
 8004674:	d8c12017 	ldw	r3,1152(sp)
 8004678:	003e3506 	br	8003f50 <__alt_data_end+0xfc003f50>
 800467c:	10803fcc 	andi	r2,r2,255
 8004680:	00c00044 	movi	r3,1
 8004684:	10fddc1e 	bne	r2,r3,8003df8 <__alt_data_end+0xfc003df8>
 8004688:	a800021e 	bne	r21,zero,8004694 <___vfprintf_internal_r+0xe40>
 800468c:	00800244 	movi	r2,9
 8004690:	14801e2e 	bgeu	r2,r18,800470c <___vfprintf_internal_r+0xeb8>
 8004694:	dc012b15 	stw	r16,1196(sp)
 8004698:	dc410e04 	addi	r17,sp,1080
 800469c:	9021883a 	mov	r16,r18
 80046a0:	da012c15 	stw	r8,1200(sp)
 80046a4:	a825883a 	mov	r18,r21
 80046a8:	482b883a 	mov	r21,r9
 80046ac:	8009883a 	mov	r4,r16
 80046b0:	900b883a 	mov	r5,r18
 80046b4:	01800284 	movi	r6,10
 80046b8:	000f883a 	mov	r7,zero
 80046bc:	800b8080 	call	800b808 <__umoddi3>
 80046c0:	10800c04 	addi	r2,r2,48
 80046c4:	8c7fffc4 	addi	r17,r17,-1
 80046c8:	8009883a 	mov	r4,r16
 80046cc:	900b883a 	mov	r5,r18
 80046d0:	01800284 	movi	r6,10
 80046d4:	000f883a 	mov	r7,zero
 80046d8:	88800005 	stb	r2,0(r17)
 80046dc:	800b1c80 	call	800b1c8 <__udivdi3>
 80046e0:	1021883a 	mov	r16,r2
 80046e4:	10c4b03a 	or	r2,r2,r3
 80046e8:	1825883a 	mov	r18,r3
 80046ec:	103fef1e 	bne	r2,zero,80046ac <__alt_data_end+0xfc0046ac>
 80046f0:	d9012817 	ldw	r4,1184(sp)
 80046f4:	dc413115 	stw	r17,1220(sp)
 80046f8:	dc012b17 	ldw	r16,1196(sp)
 80046fc:	da012c17 	ldw	r8,1200(sp)
 8004700:	a813883a 	mov	r9,r21
 8004704:	2463c83a 	sub	r17,r4,r17
 8004708:	003dcd06 	br	8003e40 <__alt_data_end+0xfc003e40>
 800470c:	94800c04 	addi	r18,r18,48
 8004710:	d8c10dc4 	addi	r3,sp,1079
 8004714:	dc810dc5 	stb	r18,1079(sp)
 8004718:	dc413c17 	ldw	r17,1264(sp)
 800471c:	d8c13115 	stw	r3,1220(sp)
 8004720:	003dc706 	br	8003e40 <__alt_data_end+0xfc003e40>
 8004724:	00801944 	movi	r2,101
 8004728:	1400720e 	bge	r2,r16,80048f4 <___vfprintf_internal_r+0x10a0>
 800472c:	d9013717 	ldw	r4,1244(sp)
 8004730:	d9413917 	ldw	r5,1252(sp)
 8004734:	000d883a 	mov	r6,zero
 8004738:	000f883a 	mov	r7,zero
 800473c:	d8c13d15 	stw	r3,1268(sp)
 8004740:	da013f15 	stw	r8,1276(sp)
 8004744:	800d1940 	call	800d194 <__eqdf2>
 8004748:	d8c13d17 	ldw	r3,1268(sp)
 800474c:	da013f17 	ldw	r8,1276(sp)
 8004750:	1000f41e 	bne	r2,zero,8004b24 <___vfprintf_internal_r+0x12d0>
 8004754:	d8811f17 	ldw	r2,1148(sp)
 8004758:	01020074 	movhi	r4,2049
 800475c:	21070404 	addi	r4,r4,7184
 8004760:	18c00044 	addi	r3,r3,1
 8004764:	10800044 	addi	r2,r2,1
 8004768:	41000015 	stw	r4,0(r8)
 800476c:	01000044 	movi	r4,1
 8004770:	41000115 	stw	r4,4(r8)
 8004774:	d8c12015 	stw	r3,1152(sp)
 8004778:	d8811f15 	stw	r2,1148(sp)
 800477c:	010001c4 	movi	r4,7
 8004780:	20828d16 	blt	r4,r2,80051b8 <___vfprintf_internal_r+0x1964>
 8004784:	42000204 	addi	r8,r8,8
 8004788:	d8812617 	ldw	r2,1176(sp)
 800478c:	d9413317 	ldw	r5,1228(sp)
 8004790:	11400216 	blt	r2,r5,800479c <___vfprintf_internal_r+0xf48>
 8004794:	e080004c 	andi	r2,fp,1
 8004798:	103e4126 	beq	r2,zero,80040a0 <__alt_data_end+0xfc0040a0>
 800479c:	d8813817 	ldw	r2,1248(sp)
 80047a0:	d9013517 	ldw	r4,1236(sp)
 80047a4:	d9413817 	ldw	r5,1248(sp)
 80047a8:	1887883a 	add	r3,r3,r2
 80047ac:	d8811f17 	ldw	r2,1148(sp)
 80047b0:	41000015 	stw	r4,0(r8)
 80047b4:	41400115 	stw	r5,4(r8)
 80047b8:	10800044 	addi	r2,r2,1
 80047bc:	d8c12015 	stw	r3,1152(sp)
 80047c0:	d8811f15 	stw	r2,1148(sp)
 80047c4:	010001c4 	movi	r4,7
 80047c8:	20830916 	blt	r4,r2,80053f0 <___vfprintf_internal_r+0x1b9c>
 80047cc:	42000204 	addi	r8,r8,8
 80047d0:	d8813317 	ldw	r2,1228(sp)
 80047d4:	143fffc4 	addi	r16,r2,-1
 80047d8:	043e310e 	bge	zero,r16,80040a0 <__alt_data_end+0xfc0040a0>
 80047dc:	04400404 	movi	r17,16
 80047e0:	d8811f17 	ldw	r2,1148(sp)
 80047e4:	8c007e0e 	bge	r17,r16,80049e0 <___vfprintf_internal_r+0x118c>
 80047e8:	01420074 	movhi	r5,2049
 80047ec:	29470484 	addi	r5,r5,7186
 80047f0:	d9412c15 	stw	r5,1200(sp)
 80047f4:	04c001c4 	movi	r19,7
 80047f8:	00000306 	br	8004808 <___vfprintf_internal_r+0xfb4>
 80047fc:	42000204 	addi	r8,r8,8
 8004800:	843ffc04 	addi	r16,r16,-16
 8004804:	8c00790e 	bge	r17,r16,80049ec <___vfprintf_internal_r+0x1198>
 8004808:	18c00404 	addi	r3,r3,16
 800480c:	10800044 	addi	r2,r2,1
 8004810:	45000015 	stw	r20,0(r8)
 8004814:	44400115 	stw	r17,4(r8)
 8004818:	d8c12015 	stw	r3,1152(sp)
 800481c:	d8811f15 	stw	r2,1148(sp)
 8004820:	98bff60e 	bge	r19,r2,80047fc <__alt_data_end+0xfc0047fc>
 8004824:	b809883a 	mov	r4,r23
 8004828:	b00b883a 	mov	r5,r22
 800482c:	d9811e04 	addi	r6,sp,1144
 8004830:	80097440 	call	8009744 <__sprint_r>
 8004834:	103d1f1e 	bne	r2,zero,8003cb4 <__alt_data_end+0xfc003cb4>
 8004838:	d8c12017 	ldw	r3,1152(sp)
 800483c:	d8811f17 	ldw	r2,1148(sp)
 8004840:	da000404 	addi	r8,sp,16
 8004844:	003fee06 	br	8004800 <__alt_data_end+0xfc004800>
 8004848:	d9412e17 	ldw	r5,1208(sp)
 800484c:	d8812b17 	ldw	r2,1196(sp)
 8004850:	28a7c83a 	sub	r19,r5,r2
 8004854:	04fddc0e 	bge	zero,r19,8003fc8 <__alt_data_end+0xfc003fc8>
 8004858:	05400404 	movi	r21,16
 800485c:	d8811f17 	ldw	r2,1148(sp)
 8004860:	acc3870e 	bge	r21,r19,8005680 <___vfprintf_internal_r+0x1e2c>
 8004864:	01420074 	movhi	r5,2049
 8004868:	29470484 	addi	r5,r5,7186
 800486c:	d9412c15 	stw	r5,1200(sp)
 8004870:	048001c4 	movi	r18,7
 8004874:	00000306 	br	8004884 <___vfprintf_internal_r+0x1030>
 8004878:	9cfffc04 	addi	r19,r19,-16
 800487c:	42000204 	addi	r8,r8,8
 8004880:	acc0110e 	bge	r21,r19,80048c8 <___vfprintf_internal_r+0x1074>
 8004884:	18c00404 	addi	r3,r3,16
 8004888:	10800044 	addi	r2,r2,1
 800488c:	45000015 	stw	r20,0(r8)
 8004890:	45400115 	stw	r21,4(r8)
 8004894:	d8c12015 	stw	r3,1152(sp)
 8004898:	d8811f15 	stw	r2,1148(sp)
 800489c:	90bff60e 	bge	r18,r2,8004878 <__alt_data_end+0xfc004878>
 80048a0:	b809883a 	mov	r4,r23
 80048a4:	b00b883a 	mov	r5,r22
 80048a8:	d9811e04 	addi	r6,sp,1144
 80048ac:	80097440 	call	8009744 <__sprint_r>
 80048b0:	103d001e 	bne	r2,zero,8003cb4 <__alt_data_end+0xfc003cb4>
 80048b4:	9cfffc04 	addi	r19,r19,-16
 80048b8:	d8c12017 	ldw	r3,1152(sp)
 80048bc:	d8811f17 	ldw	r2,1148(sp)
 80048c0:	da000404 	addi	r8,sp,16
 80048c4:	acffef16 	blt	r21,r19,8004884 <__alt_data_end+0xfc004884>
 80048c8:	d9012c17 	ldw	r4,1200(sp)
 80048cc:	1cc7883a 	add	r3,r3,r19
 80048d0:	10800044 	addi	r2,r2,1
 80048d4:	41000015 	stw	r4,0(r8)
 80048d8:	44c00115 	stw	r19,4(r8)
 80048dc:	d8c12015 	stw	r3,1152(sp)
 80048e0:	d8811f15 	stw	r2,1148(sp)
 80048e4:	010001c4 	movi	r4,7
 80048e8:	20817816 	blt	r4,r2,8004ecc <___vfprintf_internal_r+0x1678>
 80048ec:	42000204 	addi	r8,r8,8
 80048f0:	003db506 	br	8003fc8 <__alt_data_end+0xfc003fc8>
 80048f4:	d9413317 	ldw	r5,1228(sp)
 80048f8:	00800044 	movi	r2,1
 80048fc:	18c00044 	addi	r3,r3,1
 8004900:	11413e0e 	bge	r2,r5,8004dfc <___vfprintf_internal_r+0x15a8>
 8004904:	dc011f17 	ldw	r16,1148(sp)
 8004908:	d8813117 	ldw	r2,1220(sp)
 800490c:	d8c12015 	stw	r3,1152(sp)
 8004910:	84000044 	addi	r16,r16,1
 8004914:	40800015 	stw	r2,0(r8)
 8004918:	00800044 	movi	r2,1
 800491c:	40800115 	stw	r2,4(r8)
 8004920:	dc011f15 	stw	r16,1148(sp)
 8004924:	008001c4 	movi	r2,7
 8004928:	14015616 	blt	r2,r16,8004e84 <___vfprintf_internal_r+0x1630>
 800492c:	42000204 	addi	r8,r8,8
 8004930:	d9013817 	ldw	r4,1248(sp)
 8004934:	d9413517 	ldw	r5,1236(sp)
 8004938:	84000044 	addi	r16,r16,1
 800493c:	1907883a 	add	r3,r3,r4
 8004940:	41400015 	stw	r5,0(r8)
 8004944:	41000115 	stw	r4,4(r8)
 8004948:	d8c12015 	stw	r3,1152(sp)
 800494c:	dc011f15 	stw	r16,1148(sp)
 8004950:	008001c4 	movi	r2,7
 8004954:	14015416 	blt	r2,r16,8004ea8 <___vfprintf_internal_r+0x1654>
 8004958:	44400204 	addi	r17,r8,8
 800495c:	d9013717 	ldw	r4,1244(sp)
 8004960:	d9413917 	ldw	r5,1252(sp)
 8004964:	000d883a 	mov	r6,zero
 8004968:	000f883a 	mov	r7,zero
 800496c:	d8c13d15 	stw	r3,1268(sp)
 8004970:	800d1940 	call	800d194 <__eqdf2>
 8004974:	d8c13d17 	ldw	r3,1268(sp)
 8004978:	1000a726 	beq	r2,zero,8004c18 <___vfprintf_internal_r+0x13c4>
 800497c:	d9013317 	ldw	r4,1228(sp)
 8004980:	d9413117 	ldw	r5,1220(sp)
 8004984:	84000044 	addi	r16,r16,1
 8004988:	20bfffc4 	addi	r2,r4,-1
 800498c:	1887883a 	add	r3,r3,r2
 8004990:	29000044 	addi	r4,r5,1
 8004994:	88800115 	stw	r2,4(r17)
 8004998:	89000015 	stw	r4,0(r17)
 800499c:	d8c12015 	stw	r3,1152(sp)
 80049a0:	dc011f15 	stw	r16,1148(sp)
 80049a4:	008001c4 	movi	r2,7
 80049a8:	14012d16 	blt	r2,r16,8004e60 <___vfprintf_internal_r+0x160c>
 80049ac:	8c400204 	addi	r17,r17,8
 80049b0:	d9413a17 	ldw	r5,1256(sp)
 80049b4:	dcc122c4 	addi	r19,sp,1163
 80049b8:	84000044 	addi	r16,r16,1
 80049bc:	28c7883a 	add	r3,r5,r3
 80049c0:	8cc00015 	stw	r19,0(r17)
 80049c4:	89400115 	stw	r5,4(r17)
 80049c8:	d8c12015 	stw	r3,1152(sp)
 80049cc:	dc011f15 	stw	r16,1148(sp)
 80049d0:	008001c4 	movi	r2,7
 80049d4:	14000e16 	blt	r2,r16,8004a10 <___vfprintf_internal_r+0x11bc>
 80049d8:	8a000204 	addi	r8,r17,8
 80049dc:	003db006 	br	80040a0 <__alt_data_end+0xfc0040a0>
 80049e0:	01020074 	movhi	r4,2049
 80049e4:	21070484 	addi	r4,r4,7186
 80049e8:	d9012c15 	stw	r4,1200(sp)
 80049ec:	d9012c17 	ldw	r4,1200(sp)
 80049f0:	1c07883a 	add	r3,r3,r16
 80049f4:	44000115 	stw	r16,4(r8)
 80049f8:	41000015 	stw	r4,0(r8)
 80049fc:	10800044 	addi	r2,r2,1
 8004a00:	d8c12015 	stw	r3,1152(sp)
 8004a04:	d8811f15 	stw	r2,1148(sp)
 8004a08:	010001c4 	movi	r4,7
 8004a0c:	20bda30e 	bge	r4,r2,800409c <__alt_data_end+0xfc00409c>
 8004a10:	b809883a 	mov	r4,r23
 8004a14:	b00b883a 	mov	r5,r22
 8004a18:	d9811e04 	addi	r6,sp,1144
 8004a1c:	80097440 	call	8009744 <__sprint_r>
 8004a20:	103ca41e 	bne	r2,zero,8003cb4 <__alt_data_end+0xfc003cb4>
 8004a24:	d8c12017 	ldw	r3,1152(sp)
 8004a28:	da000404 	addi	r8,sp,16
 8004a2c:	003d9c06 	br	80040a0 <__alt_data_end+0xfc0040a0>
 8004a30:	b809883a 	mov	r4,r23
 8004a34:	b00b883a 	mov	r5,r22
 8004a38:	d9811e04 	addi	r6,sp,1144
 8004a3c:	80097440 	call	8009744 <__sprint_r>
 8004a40:	103dd226 	beq	r2,zero,800418c <__alt_data_end+0xfc00418c>
 8004a44:	003c9b06 	br	8003cb4 <__alt_data_end+0xfc003cb4>
 8004a48:	10803fcc 	andi	r2,r2,255
 8004a4c:	1000311e 	bne	r2,zero,8004b14 <___vfprintf_internal_r+0x12c0>
 8004a50:	e080004c 	andi	r2,fp,1
 8004a54:	10002f26 	beq	r2,zero,8004b14 <___vfprintf_internal_r+0x12c0>
 8004a58:	00800c04 	movi	r2,48
 8004a5c:	d8c10dc4 	addi	r3,sp,1079
 8004a60:	d8810dc5 	stb	r2,1079(sp)
 8004a64:	dc413c17 	ldw	r17,1264(sp)
 8004a68:	d8c13115 	stw	r3,1220(sp)
 8004a6c:	003cf406 	br	8003e40 <__alt_data_end+0xfc003e40>
 8004a70:	b809883a 	mov	r4,r23
 8004a74:	b00b883a 	mov	r5,r22
 8004a78:	d9811e04 	addi	r6,sp,1144
 8004a7c:	80097440 	call	8009744 <__sprint_r>
 8004a80:	103c8c1e 	bne	r2,zero,8003cb4 <__alt_data_end+0xfc003cb4>
 8004a84:	d8c12017 	ldw	r3,1152(sp)
 8004a88:	da000404 	addi	r8,sp,16
 8004a8c:	003d7706 	br	800406c <__alt_data_end+0xfc00406c>
 8004a90:	b809883a 	mov	r4,r23
 8004a94:	b00b883a 	mov	r5,r22
 8004a98:	d9811e04 	addi	r6,sp,1144
 8004a9c:	80097440 	call	8009744 <__sprint_r>
 8004aa0:	103c841e 	bne	r2,zero,8003cb4 <__alt_data_end+0xfc003cb4>
 8004aa4:	d8c12017 	ldw	r3,1152(sp)
 8004aa8:	da000404 	addi	r8,sp,16
 8004aac:	003d3506 	br	8003f84 <__alt_data_end+0xfc003f84>
 8004ab0:	b809883a 	mov	r4,r23
 8004ab4:	b00b883a 	mov	r5,r22
 8004ab8:	d9811e04 	addi	r6,sp,1144
 8004abc:	80097440 	call	8009744 <__sprint_r>
 8004ac0:	103c7c1e 	bne	r2,zero,8003cb4 <__alt_data_end+0xfc003cb4>
 8004ac4:	d8c12017 	ldw	r3,1152(sp)
 8004ac8:	da000404 	addi	r8,sp,16
 8004acc:	003d3b06 	br	8003fbc <__alt_data_end+0xfc003fbc>
 8004ad0:	d9413b17 	ldw	r5,1260(sp)
 8004ad4:	d8c10e04 	addi	r3,sp,1080
 8004ad8:	908003cc 	andi	r2,r18,15
 8004adc:	a808973a 	slli	r4,r21,28
 8004ae0:	2885883a 	add	r2,r5,r2
 8004ae4:	9024d13a 	srli	r18,r18,4
 8004ae8:	10800003 	ldbu	r2,0(r2)
 8004aec:	a82ad13a 	srli	r21,r21,4
 8004af0:	18ffffc4 	addi	r3,r3,-1
 8004af4:	24a4b03a 	or	r18,r4,r18
 8004af8:	18800005 	stb	r2,0(r3)
 8004afc:	9544b03a 	or	r2,r18,r21
 8004b00:	103ff51e 	bne	r2,zero,8004ad8 <__alt_data_end+0xfc004ad8>
 8004b04:	d9412817 	ldw	r5,1184(sp)
 8004b08:	d8c13115 	stw	r3,1220(sp)
 8004b0c:	28e3c83a 	sub	r17,r5,r3
 8004b10:	003ccb06 	br	8003e40 <__alt_data_end+0xfc003e40>
 8004b14:	d8c10e04 	addi	r3,sp,1080
 8004b18:	0023883a 	mov	r17,zero
 8004b1c:	d8c13115 	stw	r3,1220(sp)
 8004b20:	003cc706 	br	8003e40 <__alt_data_end+0xfc003e40>
 8004b24:	dc012617 	ldw	r16,1176(sp)
 8004b28:	0401ab0e 	bge	zero,r16,80051d8 <___vfprintf_internal_r+0x1984>
 8004b2c:	d8813317 	ldw	r2,1228(sp)
 8004b30:	d9413117 	ldw	r5,1220(sp)
 8004b34:	d9013417 	ldw	r4,1232(sp)
 8004b38:	1023883a 	mov	r17,r2
 8004b3c:	28a1883a 	add	r16,r5,r2
 8004b40:	2080010e 	bge	r4,r2,8004b48 <___vfprintf_internal_r+0x12f4>
 8004b44:	2023883a 	mov	r17,r4
 8004b48:	04400b0e 	bge	zero,r17,8004b78 <___vfprintf_internal_r+0x1324>
 8004b4c:	d8811f17 	ldw	r2,1148(sp)
 8004b50:	d9413117 	ldw	r5,1220(sp)
 8004b54:	1c47883a 	add	r3,r3,r17
 8004b58:	10800044 	addi	r2,r2,1
 8004b5c:	41400015 	stw	r5,0(r8)
 8004b60:	44400115 	stw	r17,4(r8)
 8004b64:	d8c12015 	stw	r3,1152(sp)
 8004b68:	d8811f15 	stw	r2,1148(sp)
 8004b6c:	010001c4 	movi	r4,7
 8004b70:	20826716 	blt	r4,r2,8005510 <___vfprintf_internal_r+0x1cbc>
 8004b74:	42000204 	addi	r8,r8,8
 8004b78:	88026316 	blt	r17,zero,8005508 <___vfprintf_internal_r+0x1cb4>
 8004b7c:	d8813417 	ldw	r2,1232(sp)
 8004b80:	1463c83a 	sub	r17,r2,r17
 8004b84:	0440590e 	bge	zero,r17,8004cec <___vfprintf_internal_r+0x1498>
 8004b88:	04c00404 	movi	r19,16
 8004b8c:	d8811f17 	ldw	r2,1148(sp)
 8004b90:	9c41770e 	bge	r19,r17,8005170 <___vfprintf_internal_r+0x191c>
 8004b94:	01420074 	movhi	r5,2049
 8004b98:	29470484 	addi	r5,r5,7186
 8004b9c:	d9412c15 	stw	r5,1200(sp)
 8004ba0:	054001c4 	movi	r21,7
 8004ba4:	00000306 	br	8004bb4 <___vfprintf_internal_r+0x1360>
 8004ba8:	42000204 	addi	r8,r8,8
 8004bac:	8c7ffc04 	addi	r17,r17,-16
 8004bb0:	9c41720e 	bge	r19,r17,800517c <___vfprintf_internal_r+0x1928>
 8004bb4:	18c00404 	addi	r3,r3,16
 8004bb8:	10800044 	addi	r2,r2,1
 8004bbc:	45000015 	stw	r20,0(r8)
 8004bc0:	44c00115 	stw	r19,4(r8)
 8004bc4:	d8c12015 	stw	r3,1152(sp)
 8004bc8:	d8811f15 	stw	r2,1148(sp)
 8004bcc:	a8bff60e 	bge	r21,r2,8004ba8 <__alt_data_end+0xfc004ba8>
 8004bd0:	b809883a 	mov	r4,r23
 8004bd4:	b00b883a 	mov	r5,r22
 8004bd8:	d9811e04 	addi	r6,sp,1144
 8004bdc:	80097440 	call	8009744 <__sprint_r>
 8004be0:	103c341e 	bne	r2,zero,8003cb4 <__alt_data_end+0xfc003cb4>
 8004be4:	d8c12017 	ldw	r3,1152(sp)
 8004be8:	d8811f17 	ldw	r2,1148(sp)
 8004bec:	da000404 	addi	r8,sp,16
 8004bf0:	003fee06 	br	8004bac <__alt_data_end+0xfc004bac>
 8004bf4:	b809883a 	mov	r4,r23
 8004bf8:	b00b883a 	mov	r5,r22
 8004bfc:	d9811e04 	addi	r6,sp,1144
 8004c00:	80097440 	call	8009744 <__sprint_r>
 8004c04:	103c2b1e 	bne	r2,zero,8003cb4 <__alt_data_end+0xfc003cb4>
 8004c08:	d8c12017 	ldw	r3,1152(sp)
 8004c0c:	d8812787 	ldb	r2,1182(sp)
 8004c10:	da000404 	addi	r8,sp,16
 8004c14:	003cce06 	br	8003f50 <__alt_data_end+0xfc003f50>
 8004c18:	d8813317 	ldw	r2,1228(sp)
 8004c1c:	14ffffc4 	addi	r19,r2,-1
 8004c20:	04ff630e 	bge	zero,r19,80049b0 <__alt_data_end+0xfc0049b0>
 8004c24:	05400404 	movi	r21,16
 8004c28:	acc0810e 	bge	r21,r19,8004e30 <___vfprintf_internal_r+0x15dc>
 8004c2c:	01420074 	movhi	r5,2049
 8004c30:	29470484 	addi	r5,r5,7186
 8004c34:	d9412c15 	stw	r5,1200(sp)
 8004c38:	01c001c4 	movi	r7,7
 8004c3c:	00000306 	br	8004c4c <___vfprintf_internal_r+0x13f8>
 8004c40:	8c400204 	addi	r17,r17,8
 8004c44:	9cfffc04 	addi	r19,r19,-16
 8004c48:	acc07c0e 	bge	r21,r19,8004e3c <___vfprintf_internal_r+0x15e8>
 8004c4c:	18c00404 	addi	r3,r3,16
 8004c50:	84000044 	addi	r16,r16,1
 8004c54:	8d000015 	stw	r20,0(r17)
 8004c58:	8d400115 	stw	r21,4(r17)
 8004c5c:	d8c12015 	stw	r3,1152(sp)
 8004c60:	dc011f15 	stw	r16,1148(sp)
 8004c64:	3c3ff60e 	bge	r7,r16,8004c40 <__alt_data_end+0xfc004c40>
 8004c68:	b809883a 	mov	r4,r23
 8004c6c:	b00b883a 	mov	r5,r22
 8004c70:	d9811e04 	addi	r6,sp,1144
 8004c74:	d9c13d15 	stw	r7,1268(sp)
 8004c78:	80097440 	call	8009744 <__sprint_r>
 8004c7c:	d9c13d17 	ldw	r7,1268(sp)
 8004c80:	103c0c1e 	bne	r2,zero,8003cb4 <__alt_data_end+0xfc003cb4>
 8004c84:	d8c12017 	ldw	r3,1152(sp)
 8004c88:	dc011f17 	ldw	r16,1148(sp)
 8004c8c:	dc400404 	addi	r17,sp,16
 8004c90:	003fec06 	br	8004c44 <__alt_data_end+0xfc004c44>
 8004c94:	00800084 	movi	r2,2
 8004c98:	9546b03a 	or	r3,r18,r21
 8004c9c:	003d7d06 	br	8004294 <__alt_data_end+0xfc004294>
 8004ca0:	10803fcc 	andi	r2,r2,255
 8004ca4:	1080201c 	xori	r2,r2,128
 8004ca8:	10bfe004 	addi	r2,r2,-128
 8004cac:	01000c04 	movi	r4,48
 8004cb0:	1101d726 	beq	r2,r4,8005410 <___vfprintf_internal_r+0x1bbc>
 8004cb4:	d9413117 	ldw	r5,1220(sp)
 8004cb8:	d8812817 	ldw	r2,1184(sp)
 8004cbc:	193fffc5 	stb	r4,-1(r3)
 8004cc0:	297fffc4 	addi	r5,r5,-1
 8004cc4:	d9413115 	stw	r5,1220(sp)
 8004cc8:	1163c83a 	sub	r17,r2,r5
 8004ccc:	003c5c06 	br	8003e40 <__alt_data_end+0xfc003e40>
 8004cd0:	b809883a 	mov	r4,r23
 8004cd4:	b00b883a 	mov	r5,r22
 8004cd8:	d9811e04 	addi	r6,sp,1144
 8004cdc:	80097440 	call	8009744 <__sprint_r>
 8004ce0:	103bf41e 	bne	r2,zero,8003cb4 <__alt_data_end+0xfc003cb4>
 8004ce4:	d8c12017 	ldw	r3,1152(sp)
 8004ce8:	da000404 	addi	r8,sp,16
 8004cec:	d9413117 	ldw	r5,1220(sp)
 8004cf0:	d9013417 	ldw	r4,1232(sp)
 8004cf4:	d8812617 	ldw	r2,1176(sp)
 8004cf8:	2923883a 	add	r17,r5,r4
 8004cfc:	d9413317 	ldw	r5,1228(sp)
 8004d00:	11400216 	blt	r2,r5,8004d0c <___vfprintf_internal_r+0x14b8>
 8004d04:	e100004c 	andi	r4,fp,1
 8004d08:	20000d26 	beq	r4,zero,8004d40 <___vfprintf_internal_r+0x14ec>
 8004d0c:	d9013817 	ldw	r4,1248(sp)
 8004d10:	d9413517 	ldw	r5,1236(sp)
 8004d14:	1907883a 	add	r3,r3,r4
 8004d18:	d9011f17 	ldw	r4,1148(sp)
 8004d1c:	41400015 	stw	r5,0(r8)
 8004d20:	d9413817 	ldw	r5,1248(sp)
 8004d24:	21000044 	addi	r4,r4,1
 8004d28:	d8c12015 	stw	r3,1152(sp)
 8004d2c:	41400115 	stw	r5,4(r8)
 8004d30:	d9011f15 	stw	r4,1148(sp)
 8004d34:	014001c4 	movi	r5,7
 8004d38:	2901fd16 	blt	r5,r4,8005530 <___vfprintf_internal_r+0x1cdc>
 8004d3c:	42000204 	addi	r8,r8,8
 8004d40:	d9013317 	ldw	r4,1228(sp)
 8004d44:	2085c83a 	sub	r2,r4,r2
 8004d48:	8449c83a 	sub	r4,r16,r17
 8004d4c:	1021883a 	mov	r16,r2
 8004d50:	2080010e 	bge	r4,r2,8004d58 <___vfprintf_internal_r+0x1504>
 8004d54:	2021883a 	mov	r16,r4
 8004d58:	04000a0e 	bge	zero,r16,8004d84 <___vfprintf_internal_r+0x1530>
 8004d5c:	d9011f17 	ldw	r4,1148(sp)
 8004d60:	1c07883a 	add	r3,r3,r16
 8004d64:	44400015 	stw	r17,0(r8)
 8004d68:	21000044 	addi	r4,r4,1
 8004d6c:	44000115 	stw	r16,4(r8)
 8004d70:	d8c12015 	stw	r3,1152(sp)
 8004d74:	d9011f15 	stw	r4,1148(sp)
 8004d78:	014001c4 	movi	r5,7
 8004d7c:	29020916 	blt	r5,r4,80055a4 <___vfprintf_internal_r+0x1d50>
 8004d80:	42000204 	addi	r8,r8,8
 8004d84:	80020116 	blt	r16,zero,800558c <___vfprintf_internal_r+0x1d38>
 8004d88:	1421c83a 	sub	r16,r2,r16
 8004d8c:	043cc40e 	bge	zero,r16,80040a0 <__alt_data_end+0xfc0040a0>
 8004d90:	04400404 	movi	r17,16
 8004d94:	d8811f17 	ldw	r2,1148(sp)
 8004d98:	8c3f110e 	bge	r17,r16,80049e0 <__alt_data_end+0xfc0049e0>
 8004d9c:	01420074 	movhi	r5,2049
 8004da0:	29470484 	addi	r5,r5,7186
 8004da4:	d9412c15 	stw	r5,1200(sp)
 8004da8:	04c001c4 	movi	r19,7
 8004dac:	00000306 	br	8004dbc <___vfprintf_internal_r+0x1568>
 8004db0:	42000204 	addi	r8,r8,8
 8004db4:	843ffc04 	addi	r16,r16,-16
 8004db8:	8c3f0c0e 	bge	r17,r16,80049ec <__alt_data_end+0xfc0049ec>
 8004dbc:	18c00404 	addi	r3,r3,16
 8004dc0:	10800044 	addi	r2,r2,1
 8004dc4:	45000015 	stw	r20,0(r8)
 8004dc8:	44400115 	stw	r17,4(r8)
 8004dcc:	d8c12015 	stw	r3,1152(sp)
 8004dd0:	d8811f15 	stw	r2,1148(sp)
 8004dd4:	98bff60e 	bge	r19,r2,8004db0 <__alt_data_end+0xfc004db0>
 8004dd8:	b809883a 	mov	r4,r23
 8004ddc:	b00b883a 	mov	r5,r22
 8004de0:	d9811e04 	addi	r6,sp,1144
 8004de4:	80097440 	call	8009744 <__sprint_r>
 8004de8:	103bb21e 	bne	r2,zero,8003cb4 <__alt_data_end+0xfc003cb4>
 8004dec:	d8c12017 	ldw	r3,1152(sp)
 8004df0:	d8811f17 	ldw	r2,1148(sp)
 8004df4:	da000404 	addi	r8,sp,16
 8004df8:	003fee06 	br	8004db4 <__alt_data_end+0xfc004db4>
 8004dfc:	e088703a 	and	r4,fp,r2
 8004e00:	203ec01e 	bne	r4,zero,8004904 <__alt_data_end+0xfc004904>
 8004e04:	dc011f17 	ldw	r16,1148(sp)
 8004e08:	d9013117 	ldw	r4,1220(sp)
 8004e0c:	40800115 	stw	r2,4(r8)
 8004e10:	84000044 	addi	r16,r16,1
 8004e14:	41000015 	stw	r4,0(r8)
 8004e18:	d8c12015 	stw	r3,1152(sp)
 8004e1c:	dc011f15 	stw	r16,1148(sp)
 8004e20:	008001c4 	movi	r2,7
 8004e24:	14000e16 	blt	r2,r16,8004e60 <___vfprintf_internal_r+0x160c>
 8004e28:	44400204 	addi	r17,r8,8
 8004e2c:	003ee006 	br	80049b0 <__alt_data_end+0xfc0049b0>
 8004e30:	01020074 	movhi	r4,2049
 8004e34:	21070484 	addi	r4,r4,7186
 8004e38:	d9012c15 	stw	r4,1200(sp)
 8004e3c:	d8812c17 	ldw	r2,1200(sp)
 8004e40:	1cc7883a 	add	r3,r3,r19
 8004e44:	84000044 	addi	r16,r16,1
 8004e48:	88800015 	stw	r2,0(r17)
 8004e4c:	8cc00115 	stw	r19,4(r17)
 8004e50:	d8c12015 	stw	r3,1152(sp)
 8004e54:	dc011f15 	stw	r16,1148(sp)
 8004e58:	008001c4 	movi	r2,7
 8004e5c:	143ed30e 	bge	r2,r16,80049ac <__alt_data_end+0xfc0049ac>
 8004e60:	b809883a 	mov	r4,r23
 8004e64:	b00b883a 	mov	r5,r22
 8004e68:	d9811e04 	addi	r6,sp,1144
 8004e6c:	80097440 	call	8009744 <__sprint_r>
 8004e70:	103b901e 	bne	r2,zero,8003cb4 <__alt_data_end+0xfc003cb4>
 8004e74:	d8c12017 	ldw	r3,1152(sp)
 8004e78:	dc011f17 	ldw	r16,1148(sp)
 8004e7c:	dc400404 	addi	r17,sp,16
 8004e80:	003ecb06 	br	80049b0 <__alt_data_end+0xfc0049b0>
 8004e84:	b809883a 	mov	r4,r23
 8004e88:	b00b883a 	mov	r5,r22
 8004e8c:	d9811e04 	addi	r6,sp,1144
 8004e90:	80097440 	call	8009744 <__sprint_r>
 8004e94:	103b871e 	bne	r2,zero,8003cb4 <__alt_data_end+0xfc003cb4>
 8004e98:	d8c12017 	ldw	r3,1152(sp)
 8004e9c:	dc011f17 	ldw	r16,1148(sp)
 8004ea0:	da000404 	addi	r8,sp,16
 8004ea4:	003ea206 	br	8004930 <__alt_data_end+0xfc004930>
 8004ea8:	b809883a 	mov	r4,r23
 8004eac:	b00b883a 	mov	r5,r22
 8004eb0:	d9811e04 	addi	r6,sp,1144
 8004eb4:	80097440 	call	8009744 <__sprint_r>
 8004eb8:	103b7e1e 	bne	r2,zero,8003cb4 <__alt_data_end+0xfc003cb4>
 8004ebc:	d8c12017 	ldw	r3,1152(sp)
 8004ec0:	dc011f17 	ldw	r16,1148(sp)
 8004ec4:	dc400404 	addi	r17,sp,16
 8004ec8:	003ea406 	br	800495c <__alt_data_end+0xfc00495c>
 8004ecc:	b809883a 	mov	r4,r23
 8004ed0:	b00b883a 	mov	r5,r22
 8004ed4:	d9811e04 	addi	r6,sp,1144
 8004ed8:	80097440 	call	8009744 <__sprint_r>
 8004edc:	103b751e 	bne	r2,zero,8003cb4 <__alt_data_end+0xfc003cb4>
 8004ee0:	d8c12017 	ldw	r3,1152(sp)
 8004ee4:	da000404 	addi	r8,sp,16
 8004ee8:	003c3706 	br	8003fc8 <__alt_data_end+0xfc003fc8>
 8004eec:	04a5c83a 	sub	r18,zero,r18
 8004ef0:	9004c03a 	cmpne	r2,r18,zero
 8004ef4:	056bc83a 	sub	r21,zero,r21
 8004ef8:	a8abc83a 	sub	r21,r21,r2
 8004efc:	04c00b44 	movi	r19,45
 8004f00:	dcc12785 	stb	r19,1182(sp)
 8004f04:	da413215 	stw	r9,1224(sp)
 8004f08:	00800044 	movi	r2,1
 8004f0c:	9546b03a 	or	r3,r18,r21
 8004f10:	003bb106 	br	8003dd8 <__alt_data_end+0xfc003dd8>
 8004f14:	da013f15 	stw	r8,1276(sp)
 8004f18:	da413e15 	stw	r9,1272(sp)
 8004f1c:	80095300 	call	8009530 <__fpclassifyd>
 8004f20:	da013f17 	ldw	r8,1276(sp)
 8004f24:	da413e17 	ldw	r9,1272(sp)
 8004f28:	1000e526 	beq	r2,zero,80052c0 <___vfprintf_internal_r+0x1a6c>
 8004f2c:	04fff7c4 	movi	r19,-33
 8004f30:	00bfffc4 	movi	r2,-1
 8004f34:	84e6703a 	and	r19,r16,r19
 8004f38:	48822926 	beq	r9,r2,80057e0 <___vfprintf_internal_r+0x1f8c>
 8004f3c:	008011c4 	movi	r2,71
 8004f40:	98821626 	beq	r19,r2,800579c <___vfprintf_internal_r+0x1f48>
 8004f44:	d9013917 	ldw	r4,1252(sp)
 8004f48:	e0c04014 	ori	r3,fp,256
 8004f4c:	d8c12d15 	stw	r3,1204(sp)
 8004f50:	20021f16 	blt	r4,zero,80057d0 <___vfprintf_internal_r+0x1f7c>
 8004f54:	dc413917 	ldw	r17,1252(sp)
 8004f58:	d8012b05 	stb	zero,1196(sp)
 8004f5c:	00801984 	movi	r2,102
 8004f60:	80814d26 	beq	r16,r2,8005498 <___vfprintf_internal_r+0x1c44>
 8004f64:	00801184 	movi	r2,70
 8004f68:	80814b26 	beq	r16,r2,8005498 <___vfprintf_internal_r+0x1c44>
 8004f6c:	00801144 	movi	r2,69
 8004f70:	98821d26 	beq	r19,r2,80057e8 <___vfprintf_internal_r+0x1f94>
 8004f74:	482b883a 	mov	r21,r9
 8004f78:	d8812604 	addi	r2,sp,1176
 8004f7c:	d8800115 	stw	r2,4(sp)
 8004f80:	d9413717 	ldw	r5,1244(sp)
 8004f84:	d8812504 	addi	r2,sp,1172
 8004f88:	d8800215 	stw	r2,8(sp)
 8004f8c:	d8812104 	addi	r2,sp,1156
 8004f90:	dd400015 	stw	r21,0(sp)
 8004f94:	d8800315 	stw	r2,12(sp)
 8004f98:	b809883a 	mov	r4,r23
 8004f9c:	880d883a 	mov	r6,r17
 8004fa0:	01c00084 	movi	r7,2
 8004fa4:	da013f15 	stw	r8,1276(sp)
 8004fa8:	da413e15 	stw	r9,1272(sp)
 8004fac:	8005d7c0 	call	8005d7c <_dtoa_r>
 8004fb0:	d8813115 	stw	r2,1220(sp)
 8004fb4:	008019c4 	movi	r2,103
 8004fb8:	da013f17 	ldw	r8,1276(sp)
 8004fbc:	da413e17 	ldw	r9,1272(sp)
 8004fc0:	80800226 	beq	r16,r2,8004fcc <___vfprintf_internal_r+0x1778>
 8004fc4:	008011c4 	movi	r2,71
 8004fc8:	8081451e 	bne	r16,r2,80054e0 <___vfprintf_internal_r+0x1c8c>
 8004fcc:	e080004c 	andi	r2,fp,1
 8004fd0:	10021e26 	beq	r2,zero,800584c <___vfprintf_internal_r+0x1ff8>
 8004fd4:	d8c13117 	ldw	r3,1220(sp)
 8004fd8:	1d55883a 	add	r10,r3,r21
 8004fdc:	d9013717 	ldw	r4,1244(sp)
 8004fe0:	880b883a 	mov	r5,r17
 8004fe4:	000d883a 	mov	r6,zero
 8004fe8:	000f883a 	mov	r7,zero
 8004fec:	da013f15 	stw	r8,1276(sp)
 8004ff0:	da413e15 	stw	r9,1272(sp)
 8004ff4:	da813d15 	stw	r10,1268(sp)
 8004ff8:	800d1940 	call	800d194 <__eqdf2>
 8004ffc:	da013f17 	ldw	r8,1276(sp)
 8005000:	da413e17 	ldw	r9,1272(sp)
 8005004:	da813d17 	ldw	r10,1268(sp)
 8005008:	1001a126 	beq	r2,zero,8005690 <___vfprintf_internal_r+0x1e3c>
 800500c:	d8812117 	ldw	r2,1156(sp)
 8005010:	1280062e 	bgeu	r2,r10,800502c <___vfprintf_internal_r+0x17d8>
 8005014:	01000c04 	movi	r4,48
 8005018:	10c00044 	addi	r3,r2,1
 800501c:	d8c12115 	stw	r3,1156(sp)
 8005020:	11000005 	stb	r4,0(r2)
 8005024:	d8812117 	ldw	r2,1156(sp)
 8005028:	12bffb36 	bltu	r2,r10,8005018 <__alt_data_end+0xfc005018>
 800502c:	d8c13117 	ldw	r3,1220(sp)
 8005030:	10c5c83a 	sub	r2,r2,r3
 8005034:	d8813315 	stw	r2,1228(sp)
 8005038:	008011c4 	movi	r2,71
 800503c:	98818926 	beq	r19,r2,8005664 <___vfprintf_internal_r+0x1e10>
 8005040:	00801944 	movi	r2,101
 8005044:	14023c0e 	bge	r2,r16,8005938 <___vfprintf_internal_r+0x20e4>
 8005048:	d8c12617 	ldw	r3,1176(sp)
 800504c:	00801984 	movi	r2,102
 8005050:	d8c13415 	stw	r3,1232(sp)
 8005054:	8081ef26 	beq	r16,r2,8005814 <___vfprintf_internal_r+0x1fc0>
 8005058:	d8c13417 	ldw	r3,1232(sp)
 800505c:	d9013317 	ldw	r4,1228(sp)
 8005060:	1901e316 	blt	r3,r4,80057f0 <___vfprintf_internal_r+0x1f9c>
 8005064:	e080004c 	andi	r2,fp,1
 8005068:	1001f426 	beq	r2,zero,800583c <___vfprintf_internal_r+0x1fe8>
 800506c:	d8c13417 	ldw	r3,1232(sp)
 8005070:	1c400044 	addi	r17,r3,1
 8005074:	8839883a 	mov	fp,r17
 8005078:	8801e416 	blt	r17,zero,800580c <___vfprintf_internal_r+0x1fb8>
 800507c:	dd412b07 	ldb	r21,1196(sp)
 8005080:	a801701e 	bne	r21,zero,8005644 <___vfprintf_internal_r+0x1df0>
 8005084:	df012b15 	stw	fp,1196(sp)
 8005088:	dcc12783 	ldbu	r19,1182(sp)
 800508c:	df012d17 	ldw	fp,1204(sp)
 8005090:	d8013215 	stw	zero,1224(sp)
 8005094:	dc812d15 	stw	r18,1204(sp)
 8005098:	003b6e06 	br	8003e54 <__alt_data_end+0xfc003e54>
 800509c:	e080040c 	andi	r2,fp,16
 80050a0:	1000b51e 	bne	r2,zero,8005378 <___vfprintf_internal_r+0x1b24>
 80050a4:	e080100c 	andi	r2,fp,64
 80050a8:	10015b26 	beq	r2,zero,8005618 <___vfprintf_internal_r+0x1dc4>
 80050ac:	d9012d17 	ldw	r4,1204(sp)
 80050b0:	d9412f17 	ldw	r5,1212(sp)
 80050b4:	20800017 	ldw	r2,0(r4)
 80050b8:	21000104 	addi	r4,r4,4
 80050bc:	d9012d15 	stw	r4,1204(sp)
 80050c0:	1140000d 	sth	r5,0(r2)
 80050c4:	003a2006 	br	8003948 <__alt_data_end+0xfc003948>
 80050c8:	e0c0100c 	andi	r3,fp,64
 80050cc:	1800a226 	beq	r3,zero,8005358 <___vfprintf_internal_r+0x1b04>
 80050d0:	d8c12d17 	ldw	r3,1204(sp)
 80050d4:	1480000b 	ldhu	r18,0(r2)
 80050d8:	002b883a 	mov	r21,zero
 80050dc:	18c00104 	addi	r3,r3,4
 80050e0:	d8c12d15 	stw	r3,1204(sp)
 80050e4:	0005883a 	mov	r2,zero
 80050e8:	9007883a 	mov	r3,r18
 80050ec:	003c6906 	br	8004294 <__alt_data_end+0xfc004294>
 80050f0:	e0c0100c 	andi	r3,fp,64
 80050f4:	18009026 	beq	r3,zero,8005338 <___vfprintf_internal_r+0x1ae4>
 80050f8:	1480000b 	ldhu	r18,0(r2)
 80050fc:	d8812d17 	ldw	r2,1204(sp)
 8005100:	002b883a 	mov	r21,zero
 8005104:	9007883a 	mov	r3,r18
 8005108:	10800104 	addi	r2,r2,4
 800510c:	d8812d15 	stw	r2,1204(sp)
 8005110:	00800044 	movi	r2,1
 8005114:	003c5f06 	br	8004294 <__alt_data_end+0xfc004294>
 8005118:	e0c0100c 	andi	r3,fp,64
 800511c:	18008026 	beq	r3,zero,8005320 <___vfprintf_internal_r+0x1acc>
 8005120:	d9012d17 	ldw	r4,1204(sp)
 8005124:	1480000b 	ldhu	r18,0(r2)
 8005128:	002b883a 	mov	r21,zero
 800512c:	21000104 	addi	r4,r4,4
 8005130:	d9012d15 	stw	r4,1204(sp)
 8005134:	003c7906 	br	800431c <__alt_data_end+0xfc00431c>
 8005138:	e080100c 	andi	r2,fp,64
 800513c:	10007126 	beq	r2,zero,8005304 <___vfprintf_internal_r+0x1ab0>
 8005140:	1c80000f 	ldh	r18,0(r3)
 8005144:	d8812d17 	ldw	r2,1204(sp)
 8005148:	902bd7fa 	srai	r21,r18,31
 800514c:	10800104 	addi	r2,r2,4
 8005150:	d8812d15 	stw	r2,1204(sp)
 8005154:	a805883a 	mov	r2,r21
 8005158:	003b1a06 	br	8003dc4 <__alt_data_end+0xfc003dc4>
 800515c:	e4000007 	ldb	r16,0(fp)
 8005160:	e005883a 	mov	r2,fp
 8005164:	003a2306 	br	80039f4 <__alt_data_end+0xfc0039f4>
 8005168:	00800084 	movi	r2,2
 800516c:	003c4906 	br	8004294 <__alt_data_end+0xfc004294>
 8005170:	01020074 	movhi	r4,2049
 8005174:	21070484 	addi	r4,r4,7186
 8005178:	d9012c15 	stw	r4,1200(sp)
 800517c:	d9012c17 	ldw	r4,1200(sp)
 8005180:	1c47883a 	add	r3,r3,r17
 8005184:	10800044 	addi	r2,r2,1
 8005188:	41000015 	stw	r4,0(r8)
 800518c:	44400115 	stw	r17,4(r8)
 8005190:	d8c12015 	stw	r3,1152(sp)
 8005194:	d8811f15 	stw	r2,1148(sp)
 8005198:	010001c4 	movi	r4,7
 800519c:	20becc16 	blt	r4,r2,8004cd0 <__alt_data_end+0xfc004cd0>
 80051a0:	42000204 	addi	r8,r8,8
 80051a4:	003ed106 	br	8004cec <__alt_data_end+0xfc004cec>
 80051a8:	01020074 	movhi	r4,2049
 80051ac:	21070484 	addi	r4,r4,7186
 80051b0:	d9012c15 	stw	r4,1200(sp)
 80051b4:	003ba306 	br	8004044 <__alt_data_end+0xfc004044>
 80051b8:	b809883a 	mov	r4,r23
 80051bc:	b00b883a 	mov	r5,r22
 80051c0:	d9811e04 	addi	r6,sp,1144
 80051c4:	80097440 	call	8009744 <__sprint_r>
 80051c8:	103aba1e 	bne	r2,zero,8003cb4 <__alt_data_end+0xfc003cb4>
 80051cc:	d8c12017 	ldw	r3,1152(sp)
 80051d0:	da000404 	addi	r8,sp,16
 80051d4:	003d6c06 	br	8004788 <__alt_data_end+0xfc004788>
 80051d8:	d8811f17 	ldw	r2,1148(sp)
 80051dc:	01420074 	movhi	r5,2049
 80051e0:	01000044 	movi	r4,1
 80051e4:	18c00044 	addi	r3,r3,1
 80051e8:	10800044 	addi	r2,r2,1
 80051ec:	29470404 	addi	r5,r5,7184
 80051f0:	41000115 	stw	r4,4(r8)
 80051f4:	41400015 	stw	r5,0(r8)
 80051f8:	d8c12015 	stw	r3,1152(sp)
 80051fc:	d8811f15 	stw	r2,1148(sp)
 8005200:	010001c4 	movi	r4,7
 8005204:	20806716 	blt	r4,r2,80053a4 <___vfprintf_internal_r+0x1b50>
 8005208:	42000204 	addi	r8,r8,8
 800520c:	8000041e 	bne	r16,zero,8005220 <___vfprintf_internal_r+0x19cc>
 8005210:	d8813317 	ldw	r2,1228(sp)
 8005214:	1000021e 	bne	r2,zero,8005220 <___vfprintf_internal_r+0x19cc>
 8005218:	e080004c 	andi	r2,fp,1
 800521c:	103ba026 	beq	r2,zero,80040a0 <__alt_data_end+0xfc0040a0>
 8005220:	d9013817 	ldw	r4,1248(sp)
 8005224:	d8811f17 	ldw	r2,1148(sp)
 8005228:	d9413517 	ldw	r5,1236(sp)
 800522c:	1907883a 	add	r3,r3,r4
 8005230:	10800044 	addi	r2,r2,1
 8005234:	41000115 	stw	r4,4(r8)
 8005238:	41400015 	stw	r5,0(r8)
 800523c:	d8c12015 	stw	r3,1152(sp)
 8005240:	d8811f15 	stw	r2,1148(sp)
 8005244:	010001c4 	movi	r4,7
 8005248:	20815716 	blt	r4,r2,80057a8 <___vfprintf_internal_r+0x1f54>
 800524c:	42000204 	addi	r8,r8,8
 8005250:	0421c83a 	sub	r16,zero,r16
 8005254:	0400810e 	bge	zero,r16,800545c <___vfprintf_internal_r+0x1c08>
 8005258:	04400404 	movi	r17,16
 800525c:	8c00bd0e 	bge	r17,r16,8005554 <___vfprintf_internal_r+0x1d00>
 8005260:	01420074 	movhi	r5,2049
 8005264:	29470484 	addi	r5,r5,7186
 8005268:	d9412c15 	stw	r5,1200(sp)
 800526c:	04c001c4 	movi	r19,7
 8005270:	00000306 	br	8005280 <___vfprintf_internal_r+0x1a2c>
 8005274:	42000204 	addi	r8,r8,8
 8005278:	843ffc04 	addi	r16,r16,-16
 800527c:	8c00b80e 	bge	r17,r16,8005560 <___vfprintf_internal_r+0x1d0c>
 8005280:	18c00404 	addi	r3,r3,16
 8005284:	10800044 	addi	r2,r2,1
 8005288:	45000015 	stw	r20,0(r8)
 800528c:	44400115 	stw	r17,4(r8)
 8005290:	d8c12015 	stw	r3,1152(sp)
 8005294:	d8811f15 	stw	r2,1148(sp)
 8005298:	98bff60e 	bge	r19,r2,8005274 <__alt_data_end+0xfc005274>
 800529c:	b809883a 	mov	r4,r23
 80052a0:	b00b883a 	mov	r5,r22
 80052a4:	d9811e04 	addi	r6,sp,1144
 80052a8:	80097440 	call	8009744 <__sprint_r>
 80052ac:	103a811e 	bne	r2,zero,8003cb4 <__alt_data_end+0xfc003cb4>
 80052b0:	d8c12017 	ldw	r3,1152(sp)
 80052b4:	d8811f17 	ldw	r2,1148(sp)
 80052b8:	da000404 	addi	r8,sp,16
 80052bc:	003fee06 	br	8005278 <__alt_data_end+0xfc005278>
 80052c0:	008011c4 	movi	r2,71
 80052c4:	1400db16 	blt	r2,r16,8005634 <___vfprintf_internal_r+0x1de0>
 80052c8:	01020074 	movhi	r4,2049
 80052cc:	2106f604 	addi	r4,r4,7128
 80052d0:	d9013115 	stw	r4,1220(sp)
 80052d4:	00c000c4 	movi	r3,3
 80052d8:	00bfdfc4 	movi	r2,-129
 80052dc:	d8c12b15 	stw	r3,1196(sp)
 80052e0:	e0b8703a 	and	fp,fp,r2
 80052e4:	dcc12783 	ldbu	r19,1182(sp)
 80052e8:	dc812d15 	stw	r18,1204(sp)
 80052ec:	1823883a 	mov	r17,r3
 80052f0:	d8013215 	stw	zero,1224(sp)
 80052f4:	d8013415 	stw	zero,1232(sp)
 80052f8:	003ad606 	br	8003e54 <__alt_data_end+0xfc003e54>
 80052fc:	4823883a 	mov	r17,r9
 8005300:	003cc906 	br	8004628 <__alt_data_end+0xfc004628>
 8005304:	1c800017 	ldw	r18,0(r3)
 8005308:	d8c12d17 	ldw	r3,1204(sp)
 800530c:	902bd7fa 	srai	r21,r18,31
 8005310:	18c00104 	addi	r3,r3,4
 8005314:	d8c12d15 	stw	r3,1204(sp)
 8005318:	a805883a 	mov	r2,r21
 800531c:	003aa906 	br	8003dc4 <__alt_data_end+0xfc003dc4>
 8005320:	d9412d17 	ldw	r5,1204(sp)
 8005324:	14800017 	ldw	r18,0(r2)
 8005328:	002b883a 	mov	r21,zero
 800532c:	29400104 	addi	r5,r5,4
 8005330:	d9412d15 	stw	r5,1204(sp)
 8005334:	003bf906 	br	800431c <__alt_data_end+0xfc00431c>
 8005338:	d8c12d17 	ldw	r3,1204(sp)
 800533c:	14800017 	ldw	r18,0(r2)
 8005340:	002b883a 	mov	r21,zero
 8005344:	18c00104 	addi	r3,r3,4
 8005348:	d8c12d15 	stw	r3,1204(sp)
 800534c:	00800044 	movi	r2,1
 8005350:	9007883a 	mov	r3,r18
 8005354:	003bcf06 	br	8004294 <__alt_data_end+0xfc004294>
 8005358:	d9012d17 	ldw	r4,1204(sp)
 800535c:	14800017 	ldw	r18,0(r2)
 8005360:	002b883a 	mov	r21,zero
 8005364:	21000104 	addi	r4,r4,4
 8005368:	d9012d15 	stw	r4,1204(sp)
 800536c:	0005883a 	mov	r2,zero
 8005370:	9007883a 	mov	r3,r18
 8005374:	003bc706 	br	8004294 <__alt_data_end+0xfc004294>
 8005378:	d9412d17 	ldw	r5,1204(sp)
 800537c:	d8c12f17 	ldw	r3,1212(sp)
 8005380:	28800017 	ldw	r2,0(r5)
 8005384:	29400104 	addi	r5,r5,4
 8005388:	d9412d15 	stw	r5,1204(sp)
 800538c:	10c00015 	stw	r3,0(r2)
 8005390:	00396d06 	br	8003948 <__alt_data_end+0xfc003948>
 8005394:	01020074 	movhi	r4,2049
 8005398:	2106f404 	addi	r4,r4,7120
 800539c:	d9013115 	stw	r4,1220(sp)
 80053a0:	003ba206 	br	800422c <__alt_data_end+0xfc00422c>
 80053a4:	b809883a 	mov	r4,r23
 80053a8:	b00b883a 	mov	r5,r22
 80053ac:	d9811e04 	addi	r6,sp,1144
 80053b0:	80097440 	call	8009744 <__sprint_r>
 80053b4:	103a3f1e 	bne	r2,zero,8003cb4 <__alt_data_end+0xfc003cb4>
 80053b8:	dc012617 	ldw	r16,1176(sp)
 80053bc:	d8c12017 	ldw	r3,1152(sp)
 80053c0:	da000404 	addi	r8,sp,16
 80053c4:	003f9106 	br	800520c <__alt_data_end+0xfc00520c>
 80053c8:	e0800044 	addi	r2,fp,1
 80053cc:	9cc00814 	ori	r19,r19,32
 80053d0:	e4000047 	ldb	r16,1(fp)
 80053d4:	00398706 	br	80039f4 <__alt_data_end+0xfc0039f4>
 80053d8:	d8812e17 	ldw	r2,1208(sp)
 80053dc:	d8c12d15 	stw	r3,1204(sp)
 80053e0:	0085c83a 	sub	r2,zero,r2
 80053e4:	d8812e15 	stw	r2,1208(sp)
 80053e8:	e005883a 	mov	r2,fp
 80053ec:	003a3a06 	br	8003cd8 <__alt_data_end+0xfc003cd8>
 80053f0:	b809883a 	mov	r4,r23
 80053f4:	b00b883a 	mov	r5,r22
 80053f8:	d9811e04 	addi	r6,sp,1144
 80053fc:	80097440 	call	8009744 <__sprint_r>
 8005400:	103a2c1e 	bne	r2,zero,8003cb4 <__alt_data_end+0xfc003cb4>
 8005404:	d8c12017 	ldw	r3,1152(sp)
 8005408:	da000404 	addi	r8,sp,16
 800540c:	003cf006 	br	80047d0 <__alt_data_end+0xfc0047d0>
 8005410:	d8c12817 	ldw	r3,1184(sp)
